(dp1
S'f_description'
p2
(dp3
S'length'
p4
I512
sS'unique'
p5
I00
sS'sortable'
p6
I4
sS'sql'
p7
S'CHAR(512)'
p8
sS'notnull'
p9
I00
sS'type'
p10
S'string'
p11
ssS'current_record'
p12
(dp13
g4
I512
sg5
I00
sg6
I12
sg7
S'INTEGER REFERENCES t_file (id) ON DELETE CASCADE  '
p14
sg9
I00
sg10
S'reference t_file'
p15
ssS'f_name'
p16
(dp17
g4
I512
sg5
I00
sg6
I2
sg7
S'CHAR(512)'
p18
sg9
I00
sg10
g11
ssS'is_active'
p19
(dp20
g4
I512
sg5
I00
sg6
I7
sg7
S'CHAR(1)'
p21
sg9
I00
sg10
S'boolean'
p22
ssS'f_code_resource'
p23
(dp24
g4
I512
sg5
I00
sg6
I3
sg7
S'INTEGER REFERENCES t_resource (id) ON DELETE CASCADE  '
p25
sg9
I00
sg10
S'reference t_resource'
p26
ssS'created_by'
p27
(dp28
g4
I512
sg5
I00
sg6
I9
sg7
S'INTEGER REFERENCES auth_user (id) ON DELETE CASCADE  '
p29
sg9
I00
sg10
S'reference auth_user'
p30
ssS'f_format'
p31
(dp32
S'sortable'
p33
L6L
sS'sql'
p34
S'CHAR(512)'
p35
sS'length'
p36
L512L
sS'notnull'
p37
L0L
sS'unique'
p38
L0L
sS'type'
p39
S'string'
p40
ssS'created_on'
p41
(dp42
g4
I512
sg5
I00
sg6
I8
sg7
S'TIMESTAMP'
p43
sg9
I00
sg10
<<<<<<< HEAD
S'datetime'
p44
ssS'f_type'
p45
(dp46
g33
L5L
sg34
S'CHAR(512)'
=======
S'reference t_resource'
p37
ssS'f_type'
p38
(dp39
S'sortable'
p40
L5L
sS'sql'
p41
S'CHAR(512)'
p42
sS'length'
p43
L512L
sS'notnull'
p44
L0L
sS'unique'
p45
L0L
sS'type'
p46
S'string'
>>>>>>> f9505a55bb2163d72eadb5a17fd2b01b871a74e4
p47
sg36
L512L
sg37
L0L
sg38
L0L
sg39
g40
ssS'f_file'
p48
(dp49
g4
I512
sg5
I00
sg6
I6
sg7
S'CHAR(512)'
p50
sg9
I00
sg10
S'upload'
p51
ssS'f_code_course'
p52
(dp53
<<<<<<< HEAD
g33
L3L
sg34
S'INTEGER REFERENCES t_course (id) ON DELETE CASCADE  '
p54
sg36
L512L
sg37
L0L
sg38
L0L
sg39
=======
g40
L3L
sg41
S'INTEGER REFERENCES t_course (id) ON DELETE CASCADE  '
p54
sg43
L512L
sg44
L0L
sg45
L0L
sg46
>>>>>>> f9505a55bb2163d72eadb5a17fd2b01b871a74e4
S'reference t_course'
p55
ssS'modified_on'
p56
(dp57
<<<<<<< HEAD
g4
I512
sg5
I00
sg6
I10
sg7
S'TIMESTAMP'
p58
sg9
I00
sg10
g44
=======
g40
L6L
sg41
S'CHAR(512)'
p58
sg43
L512L
sg44
L0L
sg45
L0L
sg46
g47
>>>>>>> f9505a55bb2163d72eadb5a17fd2b01b871a74e4
ssS'modified_by'
p59
(dp60
g4
I512
sg5
I00
sg6
I11
sg7
S'INTEGER REFERENCES auth_user (id) ON DELETE CASCADE  '
p61
sg9
I00
sg10
g30
ssS'id'
p62
(dp63
g4
I512
sg5
I00
sg6
I1
sg7
S'INTEGER PRIMARY KEY AUTOINCREMENT'
p64
sg9
I00
sg10
S'id'
p65
ssS'f_responsable'
p66
(dp67
g4
I512
sg5
I00
sg6
I5
sg7
S'INTEGER REFERENCES t_usuario (id) ON DELETE CASCADE  '
p68
sg9
I00
sg10
S'reference t_usuario'
p69
ss.