(dp1
S'output'
p2
S"<type 'exceptions.NameError'> global name 'f_program' is not defined"
p3
sS'layer'
p4
S'C:\\Disco D\\respaldo ricky\\Universidad\\Semestre 7\\lab general\\web2py_sprint2\\applications\\Virtualizacion\\controllers/api_rest.py'
p5
sS'code'
p6
S'#GENERAL FUNCTIONS\n\ndef validar_form_recurso(form):\n    c = form.vars.f_name\n    t = form.vars.f_type\n    f = form.vars.f_format\n    d = form.vars.f_description\n    c = c.strip()\n    t = t.strip()\n    f = f.strip()\n    d = d.strip()\n    if c=="" or t=="" or f=="" or d=="":\n        form.errors.f_name = \'todos los campos deben estar llenos\'\n        form.errors.f_type = \'todos los campos deben estar llenos\'\n        form.errors.f_format = \'todos los campos deben estar llenos\'\n        form.errors.f_description = \'todos los campos deben estar llenos\'\n\ndef validar_form_archivo(form):\n    c = form.vars.f_name\n    d = form.vars.f_description\n    a = form.vars.f_file\n    c = c.strip()\n    d = d.strip()\n    a = a.strip()\n    if c=="" or d=="" or a=="":\n        form.errors.f_name = \'todos los campos deben estar llenos\'\n        form.errors.f_description = \'todos los campos deben estar llenos\'\n\n#API_REST\n\n#GETS\n@auth.requires_login()\n@request.restful()\ndef get_users():\n    def GET(*args, **vars):\n        usuarios_sistema = db(db.t_usuario).select()\n        return dict(users = usuarios_sistema, length_users = len(usuarios_sistema))\n    return locals()\n\n@auth.requires_login()\n@request.restful()\ndef get_programs_new():\n    def GET(*args, **vars):\n        projects = db(db.t_project).select()  \n        programs = db(db.t_program).select()\n        data = list()\n        lista = list()\n        cont_aux = 0\n        for fila in projects:\n            for programa in programs:                \n                if fila.f_program.id == programa.id:\n                    data.append(dict(programa = f_program, virtualizado = 1, progreso = fila.f_program.f_progress))\n\n        for aux in programs:\n            for virt in data:\n                if aux.id == virt.programa.id:\n                    cont_aux = 1\n                    pass\n            if cont_aux == 0:\n                data.append(dict(programa = aux, virtualizado = 0, progreso = "0%"))\n\n        print(data)\n\n              #  data.append()\n               # rows = db().select(db.t_program.ALL, db.t_project.ALL,\n                #               left=db.t_program.on(db.t_program.id == db.t_project.f_program.id))\n       # for row in rows:\n       #     print(row)\n       # programs = db(db.t_program).select()\n       # projects = db(db.t_project).select()        \n       # data = list()\n       # for program in programs:\n       #     data.append()\n        return dict()\n    return locals()\n\n\n@auth.requires_login()\n@request.restful()\ndef get_notifications():\n    def GET(*args, **vars):\n        notificacion = db(db.t_notification.f_usuario_b == auth.user.id).select()\n        return dict(notification = notificacion, length_notification = len(notificacion) )\n    return locals()\n\n@auth.requires_login()\n@request.restful()\ndef get_programs():\n    def GET(*args, **vars):\n        res = db(db.t_program).select()\n        return dict(programs = res, length_users = len(res))\n    return locals()\n\n@auth.requires_login()\n@request.restful()     # Revisar - KEIBER - EFRA\ndef get_files():\n    def GET(*args, **vars): \n        files = db(db.t_file).select()\n        return dict(users = files, length_users = len(files))\n\n    def POST(*args, **vars):\n        return dict()\n    return locals()\n\n@auth.requires_login()\n@request.restful()     \ndef get_project_responsibles():\n    def GET(codigo_request): \n        codigo = codigo_request\n        data = list()\n        courses = db(db.t_has_course.f_program_has.belongs(db.t_program.f_code == codigo)).select()\n        for course in courses:\n            data.append(db(db.t_course.id == course.f_course_has).select())\n        return dict(courses_ = data)\n\n    def POST(*args, **vars):\n        return dict()\n    return locals()\n\n\n#GETS - REVISION -----------------------------------------------------------------------------\n@auth.requires_login()\n@request.restful()\ndef get_planillas(): #KEIBER - EFRA   - REVISAR SI CAMBIAR\xc3\x81 A SOLO BUSQUEDA EN BD\n    def GET(*args, **vars):\n        form = SQLFORM.smartgrid(db.t_resource, constraints = dict(t_resource = db.t_resource.f_is_planilla == True),\n            onupdate=auth.archive,\n            deletable=False,\n            editable=False,\n            searchable=False,\n            create=False,\n            csv=False,\n            showbuttontext=False)\n        return locals()\n    def POST(*args, **vars):\n        return dict()\n    return locals()\n\n@auth.requires_login()\n@request.restful()\ndef get_resources(): #KEIBER - EFRA  - REVISAR SI CAMBIAR\xc3\x81 A SOLO BUSQUEDA EN BD\n    def GET(*args, **vars):\n        query = db.t_resource.f_is_planilla == False\n        form = SQLFORM.smartgrid(\n            db.t_resource,\n            constraints = dict(t_resource = query),\n            onupdate=auth.archive,\n            deletable=False,\n            editable=False,\n            searchable=False,\n            create=False,\n            csv=False,\n            showbuttontext=False\n            )\n        return locals()\n    def POST(*args, **vars):\n        return dict()\n    return locals()\n\n#FIN GETS - REVISION ------------------------------------------------------------------------------------\n\n\n# POST\n@auth.requires_login()\n@request.restful()\ndef create_notification():\n    def GET(*args, **vars):\n        return dict()\n    def POST(user_receptor_request, titulo_request, contenido_request): #NOTA: ESTA REQUIERE UN AUTH \n        user_emisor, user_receptor, titulo, contenido = auth.user.id, user_receptor_request, titulo_request, contenido_request\n        select = db(db.t_usuario.f_first_name == user_receptor).select()\n        id_receptor = 0\n\n        for row in select:\n            id_receptor = row.id\n        try:            \n            db.t_notification.insert(\n                f_usuario_a = user_emisor,\n                f_usuario_b = id_receptor,\n                f_tittle = titulo,\n                f_viewed = False,\n                f_content = contenido\n                )             \n        except:\n            db.rollback()\n            return dict(status = "500", msg= "Error en el servidor", contenido = "Error en el servidor")\n        else:\n            db.commit()\n            return dict(status = "200", msg= "Operaci\xc3\xb3n exitosa", contenido = "Se ha creado la notificaci\xc3\xb3n "+titulo+" correctamente")\n\n    return locals()\n\n@auth.requires_login()\n@request.restful()\ndef create_user():\n    def GET(*args, **vars):\n        return dict()\n    def POST(user_name, name, last_name, user_type, email, password): \n        #user_name, name, last_name, user_type, email, password = request.post_vars[\'user_name\'],request.post_vars[\'name\'], request.post_vars[\'last_name\'], request.post_vars[\'user_type\'], request.post_vars[\'email\'], request.post_vars[\'password\']\n        try:\n            db.t_usuario.insert(\n                    f_username=user_name,\n                    f_first_name=name,\n                    f_last_name=last_name,           \n                    f_email=email,\n                    f_password=db.auth_user.password.requires[0](password)[0],\n                    f_type_user=user_type,\n                    f_notification="0"\n                )\n            db.auth_user.insert(\n                    first_name=name,\n                    last_name=last_name,           \n                    email=email,\n                    password=db.auth_user.password.requires[0](password)[0],           \n                )  \n        except:\n            db.rollback()\n            return dict(status = "500", msg= "Error en el servidor", contenido = "Error en el servidor")\n        else:    \n            db.commit()     \n            return dict(status = "200", msg= "Operaci\xc3\xb3n exitosa", contenido = "Se ha creado el usuario "+user_name+" correctamente")\n    return locals()\n\n@auth.requires_login()\n@request.restful()\ndef verificar_planillas():\n    def GET(*args, **vars):        \n        return dict()\n\n    def POST(id_resource):\n        try:\n            row = db(db.t_resource.id == id_resource).select().first()\n            row.update_record(f_is_verificado=True)\n        except:\n            db.rollback()\n            return dict(status = "500", msg= "Error en el servidor", contenido = "Error en el servidor")\n        else:    \n            db.commit()     \n            return dict(status = "200", msg= "Operaci\xc3\xb3n exitosa", contenido = "Se ha actualizado el recurso a verificado")\n    return locals()\n\n#REVISAR ESTA ------------------------------------------------------\n@auth.requires_login()\n@request.restful()\ndef verificar_resources():\n    def GET(*args, **vars):        \n        return dict()\n\n    def POST(id_resource):\n        row = db(db.t_resource.id == id_resource).select().first()\n        row.update_record(f_is_verificado=True)\n        return dict()\n    return locals()\n#--------------------------------------------------------------------\n@auth.requires_login()\n@request.restful()\ndef desverificar_resources():\n    def GET(*args, **vars):        \n        return dict()\n\n    def POST(id_resource, comment):\n        try:\n            comentario = comment\n            row = db(db.t_resource.id == id_resource).select().first()\n            row.update_record(f_is_verificado=False)\n\n            course = db.t_comments.insert(\n                recurso = id_resource,\n                texto = comentario,\n            )\n        except:\n            db.rollback()\n            return dict(status = "500", msg= "Error en el servidor", contenido = "Error en el servidor")\n        else:    \n            db.commit()     \n            return dict(status = "200", msg= "Operaci\xc3\xb3n exitosa", contenido = "Se ha actualizado el recurso a desverificado")\n    return locals()\n\n#@auth.requires_login()\n#@request.restful()\n#def create_program():\n#    def GET(*args, **vars):\n#        program_name = ""\n#\n#        if (program_type == "carreraLarga"):\n#            program_name = "Carrera Larga"\n#        elif (program_type == "carreraCorta"):\n#            program_name = "Carrera Corta"\n#        elif (program_type == "postgrado"):\n#            program_name = "Postgrado"\n#        elif (program_type == "diplomado"):\n#            program_name = "Diplomado"\n#        elif (program_type == "curso"):\n#            program_name = "Curso"\n#        elif (program_type == "programa"):\n#            program_name = "Programa"\n#        data = {\'program_type\': program_type, \'program_name\': program_name}\n#        return data   \n#    def POST(program_type):\n#        return dict()\n#\n#    return locals()\n\n@auth.requires_login()\n@request.restful()\ndef create_program_courses():\n    def GET(*args, **vars):        \n        return dict()\n\n    def POST(program_type, duration, modality, name, code):\n\n       # nulo = db(db.t_course.f_code == code).select()\n       # if nulo:\n\n       # print(nulo)\n       # print("HOLA")\n\n        # Getting size\n        try:\n            size = 0\n            if (modality==\'trimestral\'):\n                size = 3\n            elif (modality==\'semestral\'):\n                size = 6\n            elif (modality==\'anual\'):\n                size = 12\n\n            # Create Database Entries\n            if (program_type in (\'carreraLarga\', \'carreraCorta\', \'postgrado\')):\n                # Nivel de anidacion I\n                level_one_id = db.t_program.insert(\n                    f_name = name,\n                    f_modality = modality,\n                    f_code = code,\n                    f_duration = duration,\n                    f_level = 0\n                )\n\n                complete_duration = int(duration)*12/size\n\n                programsIDs = list()\n\n                for i in range(0, complete_duration):\n                    level_two_id = db.t_program.insert(\n                        f_name = name + \' - \' + modality + \' - \' + str(i),\n                        f_modality = None,\n                        f_code = code,\n                        f_duration = size,\n                        f_level = 1\n                    )\n\n                    db.t_has_program.insert(\n                        f_program_a = level_one_id,\n                        f_program_b = level_two_id\n                    )\n\n                    programsIDs.append(level_two_id)\n            elif (program_type in (\'diplomado\', \'curso\') ):\n                complete_duration = int(duration)*12/size\n\n                # Nivel de anidacion 0\n                level_one_id = db.t_program.insert(\n                    f_name = name,\n                    f_modality = modality,\n                    f_code = code,\n                    f_duration = duration\n                )\n                programsIDs.append(level_one_id)\n            elif (program_type == \'programa\'):\n                # Nivel de anidacion variable\n                complete_duration = int(duration)*12/size\n                pass\n        except:\n            db.rollback()\n            return dict(status = "500", msg= "Error en el servidor", contenido = "Error en el servidor")\n        else:    \n            db.commit()     \n            return dict(status = "200", msg= "Operaci\xc3\xb3n exitosa", contenido = dict(duration = complete_duration, size = size, modality = modality, programs = programsIDs))\n    return locals()\n\n@auth.requires_login()\n@request.restful()\ndef save_course():\n    def GET(*args, **vars):        \n        return dict()\n\n    def POST(program, course_code, course_name):\n        try:\n            message = \'\'\n            status = False\n            \n            # DB Inserts\n            validate = False\n            sanity_check_course = db(db.t_course.f_code == course_code).select()\n\n            for row in sanity_check_course:\n                validate = True\n\n            if ( not validate ):\n                print("This case is triggered")\n                course = db.t_course.insert(\n                    f_code = course_code,\n                    f_name = course_name,\n                )\n            else:\n                course = sanity_check_course[0]\n\n            has_course = db.t_has_course.insert(\n                f_program_has = program,\n                f_course_has = course\n            );\n\n            status = has_course != None and course != None\n        except:\n            db.rollback()\n            return dict(status = "500", msg= "Error en el servidor", contenido = "Error en el servidor")\n        else:    \n            db.commit()     \n            return dict(status = "200", msg= "Operaci\xc3\xb3n exitosa", contenido = dict(course = course, has_course = has_course, course_name = course_name, status= status))\n    return locals()\nresponse._vars=response._caller(get_programs_new)\n'
p7
sS'snapshot'
p8
(dp9
S'exception'
p10
(dp11
S'__hash__'
p12
S"<method-wrapper '__hash__' of exceptions.NameError object>"
p13
sS'__setattr__'
p14
S"<method-wrapper '__setattr__' of exceptions.NameError object>"
p15
sS'__reduce_ex__'
p16
S'<built-in method __reduce_ex__ of exceptions.NameError object>'
p17
sS'__getslice__'
p18
S"<method-wrapper '__getslice__' of exceptions.NameError object>"
p19
sS'__getitem__'
p20
S"<method-wrapper '__getitem__' of exceptions.NameError object>"
p21
sS'__setstate__'
p22
S'<built-in method __setstate__ of exceptions.NameError object>'
p23
sS'__reduce__'
p24
S'<built-in method __reduce__ of exceptions.NameError object>'
p25
sS'__str__'
p26
S"<method-wrapper '__str__' of exceptions.NameError object>"
p27
sS'__format__'
p28
S'<built-in method __format__ of exceptions.NameError object>'
p29
sS'__getattribute__'
p30
S"<method-wrapper '__getattribute__' of exceptions.NameError object>"
p31
sS'__class__'
p32
S"<type 'exceptions.NameError'>"
p33
sS'__unicode__'
p34
S'<built-in method __unicode__ of exceptions.NameError object>'
p35
sS'__delattr__'
p36
S"<method-wrapper '__delattr__' of exceptions.NameError object>"
p37
sS'__subclasshook__'
p38
S'<built-in method __subclasshook__ of type object>'
p39
sS'__repr__'
p40
S"<method-wrapper '__repr__' of exceptions.NameError object>"
p41
sS'args'
p42
S'("global name \'f_program\' is not defined",)'
p43
sS'__dict__'
p44
S'{}'
p45
sS'__sizeof__'
p46
S'<built-in method __sizeof__ of exceptions.NameError object>'
p47
sS'__doc__'
p48
S"'Name not found globally.'"
p49
sS'__init__'
p50
S"<method-wrapper '__init__' of exceptions.NameError object>"
p51
sS'__new__'
p52
S'<built-in method __new__ of type object>'
p53
ssS'evalue'
p54
S"global name 'f_program' is not defined"
p55
sS'request'
p56
cgluon.html
XML_unpickle
p57
(S's\x94^\x00\x00<div><table><tr><td style="font-weight:bold;vertical-align:top;">ajax</td><td style="vertical-align:top;">:</td><td><div>False</div></td></tr><tr><td style="font-weight:bold;vertical-align:top;">application</td><td style="vertical-align:top;">:</td><td><div>Virtualizacion</div></td></tr><tr><td style="font-weight:bold;vertical-align:top;">args</td><td style="vertical-align:top;">:</td><td><div><table></table></div></td></tr><tr><td style="font-weight:bold;vertical-align:top;">cid</td><td style="vertical-align:top;">:</td><td><div>None</div></td></tr><tr><td style="font-weight:bold;vertical-align:top;">client</td><td style="vertical-align:top;">:</td><td><div>127.0.0.1</div></td></tr><tr><td style="font-weight:bold;vertical-align:top;">controller</td><td style="vertical-align:top;">:</td><td><div>api_rest</div></td></tr><tr><td style="font-weight:bold;vertical-align:top;">cookies</td><td style="vertical-align:top;">:</td><td><div><table><tr><td style="font-weight:bold;vertical-align:top;">session_id_admin</td><td style="vertical-align:top;">:</td><td><div>127.0.0.1-8318da7a-8fbc-4a32-b545-95a625293bbd<table><tr><td style="font-weight:bold;vertical-align:top;">comment</td><td style="vertical-align:top;">:</td><td><div></div></td></tr><tr><td style="font-weight:bold;vertical-align:top;">domain</td><td style="vertical-align:top;">:</td><td><div></div></td></tr><tr><td style="font-weight:bold;vertical-align:top;">expires</td><td style="vertical-align:top;">:</td><td><div></div></td></tr><tr><td style="font-weight:bold;vertical-align:top;">httponly</td><td style="vertical-align:top;">:</td><td><div></div></td></tr><tr><td style="font-weight:bold;vertical-align:top;">max-age</td><td style="vertical-align:top;">:</td><td><div></div></td></tr><tr><td style="font-weight:bold;vertical-align:top;">path</td><td style="vertical-align:top;">:</td><td><div></div></td></tr><tr><td style="font-weight:bold;vertical-align:top;">secure</td><td style="vertical-align:top;">:</td><td><div></div></td></tr><tr><td style="font-weight:bold;vertical-align:top;">version</td><td style="vertical-align:top;">:</td><td><div></div></td></tr></table></div></td></tr><tr><td style="font-weight:bold;vertical-align:top;">session_id_virtualizacion</td><td style="vertical-align:top;">:</td><td><div>127.0.0.1-ead0a3b8-096a-43e9-aa3e-2f328b0e908e<table><tr><td style="font-weight:bold;vertical-align:top;">comment</td><td style="vertical-align:top;">:</td><td><div></div></td></tr><tr><td style="font-weight:bold;vertical-align:top;">domain</td><td style="vertical-align:top;">:</td><td><div></div></td></tr><tr><td style="font-weight:bold;vertical-align:top;">expires</td><td style="vertical-align:top;">:</td><td><div></div></td></tr><tr><td style="font-weight:bold;vertical-align:top;">httponly</td><td style="vertical-align:top;">:</td><td><div></div></td></tr><tr><td style="font-weight:bold;vertical-align:top;">max-age</td><td style="vertical-align:top;">:</td><td><div></div></td></tr><tr><td style="font-weight:bold;vertical-align:top;">path</td><td style="vertical-align:top;">:</td><td><div></div></td></tr><tr><td style="font-weight:bold;vertical-align:top;">secure</td><td style="vertical-align:top;">:</td><td><div></div></td></tr><tr><td style="font-weight:bold;vertical-align:top;">version</td><td style="vertical-align:top;">:</td><td><div></div></td></tr></table></div></td></tr><tr><td style="font-weight:bold;vertical-align:top;">session_id_welcome</td><td style="vertical-align:top;">:</td><td><div>127.0.0.1-453c9a97-dd55-4b74-825c-98d30f0f89de<table><tr><td style="font-weight:bold;vertical-align:top;">comment</td><td style="vertical-align:top;">:</td><td><div></div></td></tr><tr><td style="font-weight:bold;vertical-align:top;">domain</td><td style="vertical-align:top;">:</td><td><div></div></td></tr><tr><td style="font-weight:bold;vertical-align:top;">expires</td><td style="vertical-align:top;">:</td><td><div></div></td></tr><tr><td style="font-weight:bold;vertical-align:top;">httponly</td><td style="vertical-align:top;">:</td><td><div></div></td></tr><tr><td style="font-weight:bold;vertical-align:top;">max-age</td><td style="vertical-align:top;">:</td><td><div></div></td></tr><tr><td style="font-weight:bold;vertical-align:top;">path</td><td style="vertical-align:top;">:</td><td><div></div></td></tr><tr><td style="font-weight:bold;vertical-align:top;">secure</td><td style="vertical-align:top;">:</td><td><div></div></td></tr><tr><td style="font-weight:bold;vertical-align:top;">version</td><td style="vertical-align:top;">:</td><td><div></div></td></tr></table></div></td></tr></table></div></td></tr><tr><td style="font-weight:bold;vertical-align:top;">env</td><td style="vertical-align:top;">:</td><td><div><table><tr><td style="font-weight:bold;vertical-align:top;">HTTP_ACCEPT</td><td style="vertical-align:top;">:</td><td><div>text/html,application/xhtml+xml,application/xml;q=0.9,image/webp,*/*;q=0.8</div></td></tr><tr><td style="font-weight:bold;vertical-align:top;">HTTP_ACCEPT_ENCODING</td><td style="vertical-align:top;">:</td><td><div>gzip, deflate, sdch, br</div></td></tr><tr><td style="font-weight:bold;vertical-align:top;">HTTP_ACCEPT_LANGUAGE</td><td style="vertical-align:top;">:</td><td><div>es-ES,es;q=0.8</div></td></tr><tr><td style="font-weight:bold;vertical-align:top;">HTTP_CACHE_CONTROL</td><td style="vertical-align:top;">:</td><td><div>max-age=0</div></td></tr><tr><td style="font-weight:bold;vertical-align:top;">HTTP_CONNECTION</td><td style="vertical-align:top;">:</td><td><div>keep-alive</div></td></tr><tr><td style="font-weight:bold;vertical-align:top;">HTTP_COOKIE</td><td style="vertical-align:top;">:</td><td><div>session_id_welcome=127.0.0.1-453c9a97-dd55-4b74-825c-98d30f0f89de; session_id_virtualizacion=127.0.0.1-ead0a3b8-096a-43e9-aa3e-2f328b0e908e; session_id_admin=127.0.0.1-8318da7a-8fbc-4a32-b545-95a625293bbd</div></td></tr><tr><td style="font-weight:bold;vertical-align:top;">HTTP_HOST</td><td style="vertical-align:top;">:</td><td><div>127.0.0.1:8000</div></td></tr><tr><td style="font-weight:bold;vertical-align:top;">HTTP_UPGRADE_INSECURE_REQUESTS</td><td style="vertical-align:top;">:</td><td><div>1</div></td></tr><tr><td style="font-weight:bold;vertical-align:top;">HTTP_USER_AGENT</td><td style="vertical-align:top;">:</td><td><div>Mozilla/5.0 (Windows NT 6.1; Win64; x64) AppleWebKit/537.36 (KHTML, like Gecko) Chrome/58.0.3029.96 Safari/537.36</div></td></tr><tr><td style="font-weight:bold;vertical-align:top;">PATH_INFO</td><td style="vertical-align:top;">:</td><td><div>/Virtualizacion/api_rest/get_programs_new</div></td></tr><tr><td style="font-weight:bold;vertical-align:top;">QUERY_STRING</td><td style="vertical-align:top;">:</td><td><div></div></td></tr><tr><td style="font-weight:bold;vertical-align:top;">REMOTE_ADDR</td><td style="vertical-align:top;">:</td><td><div>127.0.0.1</div></td></tr><tr><td style="font-weight:bold;vertical-align:top;">REMOTE_PORT</td><td style="vertical-align:top;">:</td><td><div>55400</div></td></tr><tr><td style="font-weight:bold;vertical-align:top;">REQUEST_METHOD</td><td style="vertical-align:top;">:</td><td><div>GET</div></td></tr><tr><td style="font-weight:bold;vertical-align:top;">SCRIPT_NAME</td><td style="vertical-align:top;">:</td><td><div></div></td></tr><tr><td style="font-weight:bold;vertical-align:top;">SERVER_NAME</td><td style="vertical-align:top;">:</td><td><div>Ricky-PC</div></td></tr><tr><td style="font-weight:bold;vertical-align:top;">SERVER_PORT</td><td style="vertical-align:top;">:</td><td><div>8000</div></td></tr><tr><td style="font-weight:bold;vertical-align:top;">SERVER_PROTOCOL</td><td style="vertical-align:top;">:</td><td><div>HTTP/1.1</div></td></tr><tr><td style="font-weight:bold;vertical-align:top;">SERVER_SOFTWARE</td><td style="vertical-align:top;">:</td><td><div>Rocket 1.2.6</div></td></tr><tr><td style="font-weight:bold;vertical-align:top;">app_folders</td><td style="vertical-align:top;">:</td><td><div>set([&#x27;C:\\\\Disco D\\\\respaldo ricky\\\\Universidad\\\\Semestre 7\\\\lab general\\\\web2py_sprint2\\\\applications\\\\welcome\\\\&#x27;, &#x27;C:\\\\Disco D\\\\respaldo ricky\\\\Universidad\\\\Semestre 7\\\\lab general\\\\web2py_sprint2\\\\applications\\\\admin\\\\&#x27;, &#x27;C:\\\\Disco D\\\\respaldo ricky\\\\Universidad\\\\Semestre 7\\\\lab general\\\\web2py_sprint2\\\\applications\\\\Virtualizacion\\\\&#x27;])</div></td></tr><tr><td style="font-weight:bold;vertical-align:top;">applications_parent</td><td style="vertical-align:top;">:</td><td><div>C:\\Disco D\\respaldo ricky\\Universidad\\Semestre 7\\lab general\\web2py_sprint2</div></td></tr><tr><td style="font-weight:bold;vertical-align:top;">cmd_args</td><td style="vertical-align:top;">:</td><td><div><table></table></div></td></tr><tr><td style="font-weight:bold;vertical-align:top;">cmd_options</td><td style="vertical-align:top;">:</td><td><div>&lt;Values at 0x245be18: {&#x27;verbose&#x27;: False, &#x27;ip&#x27;: &#x27;127.0.0.1&#x27;, &#x27;debuglevel&#x27;: 30, &#x27;with_scheduler&#x27;: False, &#x27;shutdown_timeout&#x27;: 5, &#x27;taskbar&#x27;: False, &#x27;with_coverage&#x27;: False, &#x27;pid_filename&#x27;: &#x27;httpserver.pid&#x27;, &#x27;maxthreads&#x27;: None, &#x27;softcron&#x27;: False, &#x27;server_name&#x27;: &#x27;Ricky-PC&#x27;, &#x27;bpython&#x27;: False, &#x27;nogui&#x27;: False, &#x27;port&#x27;: 8000, &#x27;print_errors&#x27;: False, &#x27;extcron&#x27;: False, &#x27;runcron&#x27;: False, &#x27;run_system_tests&#x27;: False, &#x27;test&#x27;: None, &#x27;folder&#x27;: &#x27;C:\\\\Disco D\\\\respaldo ricky\\\\Universidad\\\\Semestre 7\\\\lab general\\\\web2py_sprint2&#x27;, &#x27;config&#x27;: &#x27;&#x27;, &#x27;minthreads&#x27;: None, &#x27;shell&#x27;: None, &#x27;run&#x27;: &#x27;&#x27;, &#x27;log_filename&#x27;: &#x27;httpserver.log&#x27;, &#x27;profiler_dir&#x27;: None, &#x27;args&#x27;: [&#x27;&#x27;], &#x27;socket_timeout&#x27;: 5, &#x27;ssl_ca_certificate&#x27;: None, &#x27;scheduler&#x27;: None, &#x27;interfaces&#x27;: None, &#x27;ssl_private_key&#x27;: &#x27;&#x27;, &#x27;gae&#x27;: None, &#x27;password&#x27;: &#x27;******&#x27;, &#x27;request_queue_size&#x27;: 5, &#x27;ssl_certificate&#x27;: &#x27;&#x27;, &#x27;cronjob&#x27;: False, &#x27;numthreads&#x27;: None, &#x27;quiet&#x27;: False, &#x27;import_models&#x27;: False, &#x27;timeout&#x27;: 10, &#x27;plain&#x27;: False, &#x27;nobanner&#x27;: False}&gt;</div></td></tr><tr><td style="font-weight:bold;vertical-align:top;">db_sessions</td><td style="vertical-align:top;">:</td><td><div>set([])</div></td></tr><tr><td style="font-weight:bold;vertical-align:top;">debugging</td><td style="vertical-align:top;">:</td><td><div>False</div></td></tr><tr><td style="font-weight:bold;vertical-align:top;">gluon_parent</td><td style="vertical-align:top;">:</td><td><div>C:\\Disco D\\respaldo ricky\\Universidad\\Semestre 7\\lab general\\web2py_sprint2</div></td></tr><tr><td style="font-weight:bold;vertical-align:top;">http_accept</td><td style="vertical-align:top;">:</td><td><div>text/html,application/xhtml+xml,application/xml;q=0.9,image/webp,*/*;q=0.8</div></td></tr><tr><td style="font-weight:bold;vertical-align:top;">http_accept_encoding</td><td style="vertical-align:top;">:</td><td><div>gzip, deflate, sdch, br</div></td></tr><tr><td style="font-weight:bold;vertical-align:top;">http_accept_language</td><td style="vertical-align:top;">:</td><td><div>es-ES,es;q=0.8</div></td></tr><tr><td style="font-weight:bold;vertical-align:top;">http_cache_control</td><td style="vertical-align:top;">:</td><td><div>max-age=0</div></td></tr><tr><td style="font-weight:bold;vertical-align:top;">http_connection</td><td style="vertical-align:top;">:</td><td><div>keep-alive</div></td></tr><tr><td style="font-weight:bold;vertical-align:top;">http_cookie</td><td style="vertical-align:top;">:</td><td><div>session_id_welcome=127.0.0.1-453c9a97-dd55-4b74-825c-98d30f0f89de; session_id_virtualizacion=127.0.0.1-ead0a3b8-096a-43e9-aa3e-2f328b0e908e; session_id_admin=127.0.0.1-8318da7a-8fbc-4a32-b545-95a625293bbd</div></td></tr><tr><td style="font-weight:bold;vertical-align:top;">http_host</td><td style="vertical-align:top;">:</td><td><div>127.0.0.1:8000</div></td></tr><tr><td style="font-weight:bold;vertical-align:top;">http_upgrade_insecure_requests</td><td style="vertical-align:top;">:</td><td><div>1</div></td></tr><tr><td style="font-weight:bold;vertical-align:top;">http_user_agent</td><td style="vertical-align:top;">:</td><td><div>Mozilla/5.0 (Windows NT 6.1; Win64; x64) AppleWebKit/537.36 (KHTML, like Gecko) Chrome/58.0.3029.96 Safari/537.36</div></td></tr><tr><td style="font-weight:bold;vertical-align:top;">is_jython</td><td style="vertical-align:top;">:</td><td><div>False</div></td></tr><tr><td style="font-weight:bold;vertical-align:top;">is_pypy</td><td style="vertical-align:top;">:</td><td><div>False</div></td></tr><tr><td style="font-weight:bold;vertical-align:top;">is_source</td><td style="vertical-align:top;">:</td><td><div>False</div></td></tr><tr><td style="font-weight:bold;vertical-align:top;">local_hosts</td><td style="vertical-align:top;">:</td><td><div><table><tr><td><div>Ricky-PC</div></td></tr><tr><td><div>192.168.1.100</div></td></tr><tr><td><div>::1</div></td></tr><tr><td><div>::ffff:127.0.0.1</div></td></tr><tr><td><div>127.0.0.1</div></td></tr></table></div></td></tr><tr><td style="font-weight:bold;vertical-align:top;">path_info</td><td style="vertical-align:top;">:</td><td><div>/Virtualizacion/api_rest/get_programs_new</div></td></tr><tr><td style="font-weight:bold;vertical-align:top;">query_string</td><td style="vertical-align:top;">:</td><td><div></div></td></tr><tr><td style="font-weight:bold;vertical-align:top;">remote_addr</td><td style="vertical-align:top;">:</td><td><div>127.0.0.1</div></td></tr><tr><td style="font-weight:bold;vertical-align:top;">remote_port</td><td style="vertical-align:top;">:</td><td><div>55400</div></td></tr><tr><td style="font-weight:bold;vertical-align:top;">request_method</td><td style="vertical-align:top;">:</td><td><div>GET</div></td></tr><tr><td style="font-weight:bold;vertical-align:top;">request_uri</td><td style="vertical-align:top;">:</td><td><div>/Virtualizacion/api_rest/get_programs_new</div></td></tr><tr><td style="font-weight:bold;vertical-align:top;">script_name</td><td style="vertical-align:top;">:</td><td><div></div></td></tr><tr><td style="font-weight:bold;vertical-align:top;">server_name</td><td style="vertical-align:top;">:</td><td><div>Ricky-PC</div></td></tr><tr><td style="font-weight:bold;vertical-align:top;">server_port</td><td style="vertical-align:top;">:</td><td><div>8000</div></td></tr><tr><td style="font-weight:bold;vertical-align:top;">server_protocol</td><td style="vertical-align:top;">:</td><td><div>HTTP/1.1</div></td></tr><tr><td style="font-weight:bold;vertical-align:top;">server_software</td><td style="vertical-align:top;">:</td><td><div>Rocket 1.2.6</div></td></tr><tr><td style="font-weight:bold;vertical-align:top;">web2py_path</td><td style="vertical-align:top;">:</td><td><div>C:\\Disco D\\respaldo ricky\\Universidad\\Semestre 7\\lab general\\web2py_sprint2</div></td></tr><tr><td style="font-weight:bold;vertical-align:top;">web2py_version</td><td style="vertical-align:top;">:</td><td><div>2.14.6-stable+timestamp.2016.05.10.00.21.47</div></td></tr><tr><td style="font-weight:bold;vertical-align:top;">wsgi.errors</td><td style="vertical-align:top;">:</td><td><div>&lt;open file &#x27;&lt;stderr&gt;&#x27;, mode &#x27;w&#x27; at 0x0045D0D0&gt;</div></td></tr><tr><td style="font-weight:bold;vertical-align:top;">wsgi.file_wrapper</td><td style="vertical-align:top;">:</td><td><div>&lt;class wsgiref.util.FileWrapper at 0x031AB0A0&gt;</div></td></tr><tr><td style="font-weight:bold;vertical-align:top;">wsgi.input</td><td style="vertical-align:top;">:</td><td><div>&lt;socket._fileobject object at 0x09B4A6F0&gt;</div></td></tr><tr><td style="font-weight:bold;vertical-align:top;">wsgi.multiprocess</td><td style="vertical-align:top;">:</td><td><div>False</div></td></tr><tr><td style="font-weight:bold;vertical-align:top;">wsgi.multithread</td><td style="vertical-align:top;">:</td><td><div>True</div></td></tr><tr><td style="font-weight:bold;vertical-align:top;">wsgi.run_once</td><td style="vertical-align:top;">:</td><td><div>False</div></td></tr><tr><td style="font-weight:bold;vertical-align:top;">wsgi.url_scheme</td><td style="vertical-align:top;">:</td><td><div>http</div></td></tr><tr><td style="font-weight:bold;vertical-align:top;">wsgi.version</td><td style="vertical-align:top;">:</td><td><div><table><tr><td><div>1</div></td></tr><tr><td><div>0</div></td></tr></table></div></td></tr><tr><td style="font-weight:bold;vertical-align:top;">wsgi_errors</td><td style="vertical-align:top;">:</td><td><div>&lt;open file &#x27;&lt;stderr&gt;&#x27;, mode &#x27;w&#x27; at 0x0045D0D0&gt;</div></td></tr><tr><td style="font-weight:bold;vertical-align:top;">wsgi_file_wrapper</td><td style="vertical-align:top;">:</td><td><div>&lt;class wsgiref.util.FileWrapper at 0x031AB0A0&gt;</div></td></tr><tr><td style="font-weight:bold;vertical-align:top;">wsgi_input</td><td style="vertical-align:top;">:</td><td><div>&lt;socket._fileobject object at 0x09B4A6F0&gt;</div></td></tr><tr><td style="font-weight:bold;vertical-align:top;">wsgi_multiprocess</td><td style="vertical-align:top;">:</td><td><div>False</div></td></tr><tr><td style="font-weight:bold;vertical-align:top;">wsgi_multithread</td><td style="vertical-align:top;">:</td><td><div>True</div></td></tr><tr><td style="font-weight:bold;vertical-align:top;">wsgi_run_once</td><td style="vertical-align:top;">:</td><td><div>False</div></td></tr><tr><td style="font-weight:bold;vertical-align:top;">wsgi_url_scheme</td><td style="vertical-align:top;">:</td><td><div>http</div></td></tr><tr><td style="font-weight:bold;vertical-align:top;">wsgi_version</td><td style="vertical-align:top;">:</td><td><div><table><tr><td><div>1</div></td></tr><tr><td><div>0</div></td></tr></table></div></td></tr></table></div></td></tr><tr><td style="font-weight:bold;vertical-align:top;">extension</td><td style="vertical-align:top;">:</td><td><div>html</div></td></tr><tr><td style="font-weight:bold;vertical-align:top;">folder</td><td style="vertical-align:top;">:</td><td><div>C:\\Disco D\\respaldo ricky\\Universidad\\Semestre 7\\lab general\\web2py_sprint2\\applications\\Virtualizacion\\</div></td></tr><tr><td style="font-weight:bold;vertical-align:top;">function</td><td style="vertical-align:top;">:</td><td><div>get_programs_new</div></td></tr><tr><td style="font-weight:bold;vertical-align:top;">global_settings</td><td style="vertical-align:top;">:</td><td><div><table><tr><td style="font-weight:bold;vertical-align:top;">app_folders</td><td style="vertical-align:top;">:</td><td><div>set([&#x27;C:\\\\Disco D\\\\respaldo ricky\\\\Universidad\\\\Semestre 7\\\\lab general\\\\web2py_sprint2\\\\applications\\\\welcome\\\\&#x27;, &#x27;C:\\\\Disco D\\\\respaldo ricky\\\\Universidad\\\\Semestre 7\\\\lab general\\\\web2py_sprint2\\\\applications\\\\admin\\\\&#x27;, &#x27;C:\\\\Disco D\\\\respaldo ricky\\\\Universidad\\\\Semestre 7\\\\lab general\\\\web2py_sprint2\\\\applications\\\\Virtualizacion\\\\&#x27;])</div></td></tr><tr><td style="font-weight:bold;vertical-align:top;">applications_parent</td><td style="vertical-align:top;">:</td><td><div>C:\\Disco D\\respaldo ricky\\Universidad\\Semestre 7\\lab general\\web2py_sprint2</div></td></tr><tr><td style="font-weight:bold;vertical-align:top;">cmd_args</td><td style="vertical-align:top;">:</td><td><div><table></table></div></td></tr><tr><td style="font-weight:bold;vertical-align:top;">cmd_options</td><td style="vertical-align:top;">:</td><td><div>&lt;Values at 0x245be18: {&#x27;verbose&#x27;: False, &#x27;ip&#x27;: &#x27;127.0.0.1&#x27;, &#x27;debuglevel&#x27;: 30, &#x27;with_scheduler&#x27;: False, &#x27;shutdown_timeout&#x27;: 5, &#x27;taskbar&#x27;: False, &#x27;with_coverage&#x27;: False, &#x27;pid_filename&#x27;: &#x27;httpserver.pid&#x27;, &#x27;maxthreads&#x27;: None, &#x27;softcron&#x27;: False, &#x27;server_name&#x27;: &#x27;Ricky-PC&#x27;, &#x27;bpython&#x27;: False, &#x27;nogui&#x27;: False, &#x27;port&#x27;: 8000, &#x27;print_errors&#x27;: False, &#x27;extcron&#x27;: False, &#x27;runcron&#x27;: False, &#x27;run_system_tests&#x27;: False, &#x27;test&#x27;: None, &#x27;folder&#x27;: &#x27;C:\\\\Disco D\\\\respaldo ricky\\\\Universidad\\\\Semestre 7\\\\lab general\\\\web2py_sprint2&#x27;, &#x27;config&#x27;: &#x27;&#x27;, &#x27;minthreads&#x27;: None, &#x27;shell&#x27;: None, &#x27;run&#x27;: &#x27;&#x27;, &#x27;log_filename&#x27;: &#x27;httpserver.log&#x27;, &#x27;profiler_dir&#x27;: None, &#x27;args&#x27;: [&#x27;&#x27;], &#x27;socket_timeout&#x27;: 5, &#x27;ssl_ca_certificate&#x27;: None, &#x27;scheduler&#x27;: None, &#x27;interfaces&#x27;: None, &#x27;ssl_private_key&#x27;: &#x27;&#x27;, &#x27;gae&#x27;: None, &#x27;password&#x27;: &#x27;******&#x27;, &#x27;request_queue_size&#x27;: 5, &#x27;ssl_certificate&#x27;: &#x27;&#x27;, &#x27;cronjob&#x27;: False, &#x27;numthreads&#x27;: None, &#x27;quiet&#x27;: False, &#x27;import_models&#x27;: False, &#x27;timeout&#x27;: 10, &#x27;plain&#x27;: False, &#x27;nobanner&#x27;: False}&gt;</div></td></tr><tr><td style="font-weight:bold;vertical-align:top;">db_sessions</td><td style="vertical-align:top;">:</td><td><div>set([])</div></td></tr><tr><td style="font-weight:bold;vertical-align:top;">debugging</td><td style="vertical-align:top;">:</td><td><div>False</div></td></tr><tr><td style="font-weight:bold;vertical-align:top;">gluon_parent</td><td style="vertical-align:top;">:</td><td><div>C:\\Disco D\\respaldo ricky\\Universidad\\Semestre 7\\lab general\\web2py_sprint2</div></td></tr><tr><td style="font-weight:bold;vertical-align:top;">is_jython</td><td style="vertical-align:top;">:</td><td><div>False</div></td></tr><tr><td style="font-weight:bold;vertical-align:top;">is_pypy</td><td style="vertical-align:top;">:</td><td><div>False</div></td></tr><tr><td style="font-weight:bold;vertical-align:top;">is_source</td><td style="vertical-align:top;">:</td><td><div>False</div></td></tr><tr><td style="font-weight:bold;vertical-align:top;">local_hosts</td><td style="vertical-align:top;">:</td><td><div><table><tr><td><div>Ricky-PC</div></td></tr><tr><td><div>192.168.1.100</div></td></tr><tr><td><div>::1</div></td></tr><tr><td><div>::ffff:127.0.0.1</div></td></tr><tr><td><div>127.0.0.1</div></td></tr></table></div></td></tr><tr><td style="font-weight:bold;vertical-align:top;">web2py_version</td><td style="vertical-align:top;">:</td><td><div>2.14.6-stable+timestamp.2016.05.10.00.21.47</div></td></tr></table></div></td></tr><tr><td style="font-weight:bold;vertical-align:top;">is_https</td><td style="vertical-align:top;">:</td><td><div>False</div></td></tr><tr><td style="font-weight:bold;vertical-align:top;">is_local</td><td style="vertical-align:top;">:</td><td><div>True</div></td></tr><tr><td style="font-weight:bold;vertical-align:top;">is_restful</td><td style="vertical-align:top;">:</td><td><div>True</div></td></tr><tr><td style="font-weight:bold;vertical-align:top;">is_scheduler</td><td style="vertical-align:top;">:</td><td><div>False</div></td></tr><tr><td style="font-weight:bold;vertical-align:top;">is_shell</td><td style="vertical-align:top;">:</td><td><div>False</div></td></tr><tr><td style="font-weight:bold;vertical-align:top;">now</td><td style="vertical-align:top;">:</td><td><div>datetime.datetime(2017, 5, 11, 22, 28, 27, 753000)</div></td></tr><tr><td style="font-weight:bold;vertical-align:top;">raw_args</td><td style="vertical-align:top;">:</td><td><div></div></td></tr><tr><td style="font-weight:bold;vertical-align:top;">raw_extension</td><td style="vertical-align:top;">:</td><td><div>None</div></td></tr><tr><td style="font-weight:bold;vertical-align:top;">url</td><td style="vertical-align:top;">:</td><td><div>/Virtualizacion/api_rest/get_programs_new</div></td></tr><tr><td style="font-weight:bold;vertical-align:top;">utcnow</td><td style="vertical-align:top;">:</td><td><div>datetime.datetime(2017, 5, 12, 2, 28, 27, 753000)</div></td></tr><tr><td style="font-weight:bold;vertical-align:top;">wsgi</td><td style="vertical-align:top;">:</td><td><div>&lt;gluon.main.LazyWSGI object at 0x0B3D30B0&gt;</div></td></tr></table></div>'
tRp58
sS'frames'
p59
(lp60
(dp61
S'file'
p62
S'C:\\Disco D\\respaldo ricky\\Universidad\\Semestre 7\\lab general\\web2py_sprint2\\gluon\\restricted.py'
p63
sS'dump'
p64
(dp65
S'environment'
p66
S"{'A': <class 'gluon.html.A'>, 'ANY_OF': <class 'gluon.validators.ANY_OF'>, 'ASSIGNJS': <function ASSIGNJS>, 'AppConfig': <function AppConfig>, 'Auth': <class 'gluon.tools.Auth'>, 'B': <class 'gluon.html.B'>, 'BEAUTIFY': <class 'gluon.html.BEAUTIFY'>, 'BODY': <class 'gluon.html.BODY'>, 'BR': <class 'gluon.html.BR'>, 'BUTTON': <class 'gluon.html.BUTTON'>, ...}"
p67
sS'ccode'
p68
S'<code object <module> at 0B5B7608, file "C:\\Disc...\\Virtualizacion\\controllers/api_rest.py", line 3>'
p69
ssS'lnum'
p70
I227
sS'lines'
p71
(dp72
I224
S'            ccode = code'
p73
sI225
S'        else:'
p74
sI226
S'            ccode = compile2(code, layer)'
p75
sI227
S'        exec ccode in environment'
p76
sI228
S'    except HTTP:'
p77
sI229
S'        raise'
p78
sI230
S'    except RestrictedError:'
p79
sI231
S'        # do not encapsulate (obfuscate) the original RestrictedError'
p80
sI222
S'    try:'
p81
sI223
S'        if isinstance(code, types.CodeType):'
p82
ssS'call'
p83
S"(code='#GENERAL FUNCTIONS\\n\\ndef validar_form_recurso(for...esponse._vars=response._caller(get_programs_new)\\n', environment={'A': <class 'gluon.html.A'>, 'ANY_OF': <class 'gluon.validators.ANY_OF'>, 'ASSIGNJS': <function ASSIGNJS>, 'AppConfig': <function AppConfig>, 'Auth': <class 'gluon.tools.Auth'>, 'B': <class 'gluon.html.B'>, 'BEAUTIFY': <class 'gluon.html.BEAUTIFY'>, 'BODY': <class 'gluon.html.BODY'>, 'BR': <class 'gluon.html.BR'>, 'BUTTON': <class 'gluon.html.BUTTON'>, ...}, layer=r'C:\\Disco D\\respaldo ricky\\Universidad\\Semestre 7...plications\\Virtualizacion\\controllers/api_rest.py')"
p84
sS'func'
p85
S'restricted'
p86
sa(dp87
g62
S'C:\\Disco D\\respaldo ricky\\Universidad\\Semestre 7\\lab general\\web2py_sprint2\\applications\\Virtualizacion\\controllers\\api_rest.py'
p88
sg64
(dp89
sg70
I421
sg71
(dp90
I416
S'            return dict(status = "500", msg= "Error en el servidor", contenido = "Error en el servidor")'
p91
sI417
S'        else:'
p92
sI418
S'            db.commit()'
p93
sI419
S'            return dict(status = "200", msg= "Operaci\xc3\xb3n exitosa", contenido = dict(course = course, has_course = has_course, course_name = course_name, status= status))'
p94
sI420
S'    return locals()'
p95
sI411
S'            );'
p96
sI412
S''
sI413
S'            status = has_course != None and course != None'
p97
sI414
S'        except:'
p98
sI415
S'            db.rollback()'
p99
ssg83
S'()'
p100
sg85
S'<module>'
p101
sa(dp102
g62
S'C:\\Disco D\\respaldo ricky\\Universidad\\Semestre 7\\lab general\\web2py_sprint2\\gluon\\globals.py'
p103
sg64
(dp104
S'self'
p105
S'undefined'
p106
sS'f'
S'<function get_programs_new>'
p107
ssg70
I417
sg71
(dp108
I416
S'        self._vars = None'
p109
sI417
S'        self._caller = lambda f: f()'
p110
sI418
S'        self._view_environment = None'
p111
sI419
S'        self._custom_commit = None'
p112
sI420
S'        self._custom_rollback = None'
p113
sI421
S"        self.generic_patterns = ['*']"
p114
sI412
S"        self.flash = ''            # used by the default view layout"
p115
sI413
S'        self.meta = Storage()      # used by web2py_ajax.html'
p116
sI414
S'        self.menu = []             # used by the default view layout'
p117
sI415
S'        self.files = []            # used by web2py_ajax.html'
p118
ssg83
S'(f=<function get_programs_new>)'
p119
sg85
S'<lambda>'
p120
sa(dp121
g62
S'C:\\Disco D\\respaldo ricky\\Universidad\\Semestre 7\\lab general\\web2py_sprint2\\gluon\\tools.py'
p122
sg64
(dp123
S'action'
p124
S'<function get_programs_new>'
p125
sS'a'
S'()'
p126
sS'b'
g45
ssg70
I4241
sg71
(dp127
I4236
S'                    flag = condition'
p128
sI4237
S'                if not flag:'
p129
sI4238
S'                    current.session.flash = self.messages.access_denied'
p130
sI4239
S'                    return call_or_redirect('
p131
sI4240
S'                        self.settings.on_failed_authorization)'
p132
sI4241
S'                return action(*a, **b)'
p133
sI4242
S'            f.__doc__ = action.__doc__'
p134
sI4243
S'            f.__name__ = action.__name__'
p135
sI4244
S'            f.__dict__.update(action.__dict__)'
p136
sI4245
S'            return f'
p137
ssg83
S'(*a=(), **b={})'
p138
sg85
S'f'
sa(dp139
g62
S'C:\\Disco D\\respaldo ricky\\Universidad\\Semestre 7\\lab general\\web2py_sprint2\\gluon\\globals.py'
p140
sg64
(dp141
S'rest_action'
p142
S'<function GET>'
p143
sS'res'
p144
g106
sS'request.args'
p145
S'[]'
p146
sS'request'
p147
S"<Storage {'_vars': <Storage {}>, 'function': 'ge...web2py_sprint2\\\\applications\\\\Virtualizacion\\\\'}>"
p148
sS'request.vars'
p149
S'<Storage {}>'
p150
ssg70
I380
sg71
(dp151
I384
S'                except TypeError, e:'
p152
sI375
S'                rest_action = _action().get(method, None)'
p153
sI376
S'                if not (rest_action and method == method.upper()'
p154
sI377
S'                        and callable(rest_action)):'
p155
sI378
S'                    raise HTTP(405, "method not allowed")'
p156
sI379
S'                try:'
p157
sI380
S'                    res = rest_action(*request.args, **request.vars)'
p158
sI381
S'                    if is_json and not isinstance(res, str):'
p159
sI382
S'                        res = json(res)'
p160
sI383
S'                    return res'
p161
ssg83
S'(_action=<function get_programs_new>, *a=(), **b={})'
p162
sg85
S'f'
sa(dp163
g62
S'C:\\Disco D\\respaldo ricky\\Universidad\\Semestre 7\\lab general\\web2py_sprint2\\applications\\Virtualizacion\\controllers\\api_rest.py'
p164
sg64
(dp165
S'global db'
p166
S'<DAL uri="sqlite://storage.sqlite">'
p167
sS'res'
p168
g106
sS'db.t_program'
p169
S'<Table t_program (id, f_name, f_modality, f_code...reated_on, created_by, modified_on, modified_by)>'
p170
sS').select'
p171
g106
ssg70
I52
sg71
(dp172
I47
S'        lista = list()'
p173
sI48
S'        cont_aux = 0'
p174
sI49
S'        for fila in projects:'
p175
sI50
S'            for programa in programs:'
p176
sI51
S'                if fila.f_program.id == programa.id:'
p177
sI52
S'                    data.append(dict(programa = f_program, virtualizado = 1, progreso = fila.f_program.f_progress))'
p178
sI53
S''
sI54
S'        for aux in programs:'
p179
sI55
S'            for virt in data:'
p180
sI56
S'                if aux.id == virt.programa.id:'
p181
ssg83
S'(*args=(), **vars={})'
p182
sg85
S'GET'
p183
sasS'pyver'
p184
S'Python 2.7.9: C:\\Disco D\\respaldo ricky\\Universidad\\Semestre 7\\lab general\\web2py_sprint2\\web2py.exe (prefix: )'
p185
sS'session'
p186
g57
(S's\x16\n\x00\x00<div><table><tr><td style="font-weight:bold;vertical-align:top;">auth</td><td style="vertical-align:top;">:</td><td><div><table><tr><td style="font-weight:bold;vertical-align:top;">expiration</td><td style="vertical-align:top;">:</td><td><div>3600</div></td></tr><tr><td style="font-weight:bold;vertical-align:top;">hmac_key</td><td style="vertical-align:top;">:</td><td><div>851ee6f1-1f75-4980-a635-d2dc80435be8</div></td></tr><tr><td style="font-weight:bold;vertical-align:top;">last_visit</td><td style="vertical-align:top;">:</td><td><div>datetime.datetime(2017, 5, 11, 22, 28, 27, 753000)</div></td></tr><tr><td style="font-weight:bold;vertical-align:top;">remember_me</td><td style="vertical-align:top;">:</td><td><div>False</div></td></tr><tr><td style="font-weight:bold;vertical-align:top;">user</td><td style="vertical-align:top;">:</td><td><div><table><tr><td style="font-weight:bold;vertical-align:top;">email</td><td style="vertical-align:top;">:</td><td><div>ricardodpds2112@gmail.com</div></td></tr><tr><td style="font-weight:bold;vertical-align:top;">first_name</td><td style="vertical-align:top;">:</td><td><div>Ricardo</div></td></tr><tr><td style="font-weight:bold;vertical-align:top;">id</td><td style="vertical-align:top;">:</td><td><div>11L</div></td></tr><tr><td style="font-weight:bold;vertical-align:top;">last_name</td><td style="vertical-align:top;">:</td><td><div>Pereira</div></td></tr><tr><td style="font-weight:bold;vertical-align:top;">registration_id</td><td style="vertical-align:top;">:</td><td><div></div></td></tr><tr><td style="font-weight:bold;vertical-align:top;">registration_key</td><td style="vertical-align:top;">:</td><td><div></div></td></tr><tr><td style="font-weight:bold;vertical-align:top;">reset_password_key</td><td style="vertical-align:top;">:</td><td><div></div></td></tr></table></div></td></tr><tr><td style="font-weight:bold;vertical-align:top;">user_groups</td><td style="vertical-align:top;">:</td><td><div><table><tr><td style="font-weight:bold;vertical-align:top;">1</td><td style="vertical-align:top;">:</td><td><div>user_11</div></td></tr></table></div></td></tr></table></div></td></tr><tr><td style="font-weight:bold;vertical-align:top;">flash</td><td style="vertical-align:top;">:</td><td><div>None</div></td></tr><tr><td style="font-weight:bold;vertical-align:top;">last_orderby</td><td style="vertical-align:top;">:</td><td><div>None</div></td></tr><tr><td style="font-weight:bold;vertical-align:top;">last_query</td><td style="vertical-align:top;">:</td><td><div>db.t_project.id&gt;0</div></td></tr></table></div>'
tRp187
sS'etype'
p188
S"<type 'exceptions.NameError'>"
p189
sS'date'
p190
S'Thu May 11 22:28:27 2017'
p191
sS'response'
p192
g57
(S's\x9e#\x00\x00<div><table><tr><td style="font-weight:bold;vertical-align:top;">body</td><td style="vertical-align:top;">:</td><td><div>&lt;cStringIO.StringO object at 0x085CA3C0&gt;</div></td></tr><tr><td style="font-weight:bold;vertical-align:top;">cookies</td><td style="vertical-align:top;">:</td><td><div><table><tr><td style="font-weight:bold;vertical-align:top;">session_id_virtualizacion</td><td style="vertical-align:top;">:</td><td><div>127.0.0.1-ead0a3b8-096a-43e9-aa3e-2f328b0e908e<table><tr><td style="font-weight:bold;vertical-align:top;">comment</td><td style="vertical-align:top;">:</td><td><div></div></td></tr><tr><td style="font-weight:bold;vertical-align:top;">domain</td><td style="vertical-align:top;">:</td><td><div></div></td></tr><tr><td style="font-weight:bold;vertical-align:top;">expires</td><td style="vertical-align:top;">:</td><td><div></div></td></tr><tr><td style="font-weight:bold;vertical-align:top;">httponly</td><td style="vertical-align:top;">:</td><td><div></div></td></tr><tr><td style="font-weight:bold;vertical-align:top;">max-age</td><td style="vertical-align:top;">:</td><td><div></div></td></tr><tr><td style="font-weight:bold;vertical-align:top;">path</td><td style="vertical-align:top;">:</td><td><div>/</div></td></tr><tr><td style="font-weight:bold;vertical-align:top;">secure</td><td style="vertical-align:top;">:</td><td><div></div></td></tr><tr><td style="font-weight:bold;vertical-align:top;">version</td><td style="vertical-align:top;">:</td><td><div></div></td></tr></table></div></td></tr></table></div></td></tr><tr><td style="font-weight:bold;vertical-align:top;">delimiters</td><td style="vertical-align:top;">:</td><td><div><table><tr><td><div>{{</div></td></tr><tr><td><div>}}</div></td></tr></table></div></td></tr><tr><td style="font-weight:bold;vertical-align:top;">files</td><td style="vertical-align:top;">:</td><td><div><table></table></div></td></tr><tr><td style="font-weight:bold;vertical-align:top;">flash</td><td style="vertical-align:top;">:</td><td><div></div></td></tr><tr><td style="font-weight:bold;vertical-align:top;">form_label_separator</td><td style="vertical-align:top;">:</td><td><div></div></td></tr><tr><td style="font-weight:bold;vertical-align:top;">formstyle</td><td style="vertical-align:top;">:</td><td><div>bootstrap3_inline</div></td></tr><tr><td style="font-weight:bold;vertical-align:top;">generic_patterns</td><td style="vertical-align:top;">:</td><td><div><table><tr><td><div>*</div></td></tr></table></div></td></tr><tr><td style="font-weight:bold;vertical-align:top;">headers</td><td style="vertical-align:top;">:</td><td><div><table><tr><td style="font-weight:bold;vertical-align:top;">X-Powered-By</td><td style="vertical-align:top;">:</td><td><div>web2py</div></td></tr></table></div></td></tr><tr><td style="font-weight:bold;vertical-align:top;">menu</td><td style="vertical-align:top;">:</td><td><div><table><tr><td><div><table><tr><td><div>\xc3\x8dndice</div></td></tr><tr><td><div>False</div></td></tr><tr><td><div>/Virtualizacion/default/index</div></td></tr><tr><td><div><table></table></div></td></tr></table></div></td></tr><tr><td><div><table><tr><td><div>User</div></td></tr><tr><td><div>False</div></td></tr><tr><td><div>/Virtualizacion/default/user_manage</div></td></tr><tr><td><div><table></table></div></td></tr></table></div></td></tr><tr><td><div><table><tr><td><div>Profesor</div></td></tr><tr><td><div>False</div></td></tr><tr><td><div>/Virtualizacion/default/profesor</div></td></tr><tr><td><div><table></table></div></td></tr></table></div></td></tr><tr><td><div><table><tr><td><div>Disenador</div></td></tr><tr><td><div>False</div></td></tr><tr><td><div>/Virtualizacion/default/disenador</div></td></tr><tr><td><div><table></table></div></td></tr></table></div></td></tr><tr><td><div><table><tr><td><div>Course</div></td></tr><tr><td><div>False</div></td></tr><tr><td><div>/Virtualizacion/default/course_manage</div></td></tr><tr><td><div><table></table></div></td></tr></table></div></td></tr><tr><td><div><table><tr><td><div>Recurso</div></td></tr><tr><td><div>False</div></td></tr><tr><td><div>/Virtualizacion/default/recurso</div></td></tr><tr><td><div><table></table></div></td></tr></table></div></td></tr><tr><td><div><table><tr><td><div>Program</div></td></tr><tr><td><div>False</div></td></tr><tr><td><div>/Virtualizacion/default/program_manage</div></td></tr><tr><td><div><table></table></div></td></tr></table></div></td></tr><tr><td><div><table><tr><td><div>Has Course</div></td></tr><tr><td><div>False</div></td></tr><tr><td><div>/Virtualizacion/default/has_course_manage</div></td></tr><tr><td><div><table></table></div></td></tr></table></div></td></tr><tr><td><div><table><tr><td><div>Register User</div></td></tr><tr><td><div>False</div></td></tr><tr><td><div>/Virtualizacion/default/register_user</div></td></tr><tr><td><div><table></table></div></td></tr></table></div></td></tr><tr><td><div><table><tr><td><div>Dashboard</div></td></tr><tr><td><div>False</div></td></tr><tr><td><div>/Virtualizacion/default/dashboard</div></td></tr><tr><td><div><table></table></div></td></tr></table></div></td></tr></table></div></td></tr><tr><td style="font-weight:bold;vertical-align:top;">meta</td><td style="vertical-align:top;">:</td><td><div><table><tr><td style="font-weight:bold;vertical-align:top;">author</td><td style="vertical-align:top;">:</td><td><div>Aminosoft &lt;aminosoft@gmail.com&gt;</div></td></tr><tr><td style="font-weight:bold;vertical-align:top;">description</td><td style="vertical-align:top;">:</td><td><div></div></td></tr><tr><td style="font-weight:bold;vertical-align:top;">keywords</td><td style="vertical-align:top;">:</td><td><div></div></td></tr></table></div></td></tr><tr><td style="font-weight:bold;vertical-align:top;">models_to_run</td><td style="vertical-align:top;">:</td><td><div><table><tr><td><div>^\\w+\\.py$</div></td></tr><tr><td><div>^api_rest/\\w+\\.py$</div></td></tr><tr><td><div>^api_rest/get_programs_new/\\w+\\.py$</div></td></tr></table></div></td></tr><tr><td style="font-weight:bold;vertical-align:top;">postprocessing</td><td style="vertical-align:top;">:</td><td><div><table></table></div></td></tr><tr><td style="font-weight:bold;vertical-align:top;">session_client</td><td style="vertical-align:top;">:</td><td><div>127.0.0.1</div></td></tr><tr><td style="font-weight:bold;vertical-align:top;">session_cookie_compression_level</td><td style="vertical-align:top;">:</td><td><div>None</div></td></tr><tr><td style="font-weight:bold;vertical-align:top;">session_cookie_expires</td><td style="vertical-align:top;">:</td><td><div>None</div></td></tr><tr><td style="font-weight:bold;vertical-align:top;">session_data_name</td><td style="vertical-align:top;">:</td><td><div>session_data_virtualizacion</div></td></tr><tr><td style="font-weight:bold;vertical-align:top;">session_file</td><td style="vertical-align:top;">:</td><td><div>&lt;open file &#x27;C:\\\\Disco D\\\\respaldo ricky\\\\Universidad\\\\Semestre 7\\\\lab general\\\\web2py_sprint2\\\\applications\\\\Virtualizacion\\\\sessions\\\\175\\\\0f2\\\\127.0.0.1-ead0a3b8-096a-43e9-aa3e-2f328b0e908e&#x27;, mode &#x27;rb+&#x27; at 0x09F881D8&gt;</div></td></tr><tr><td style="font-weight:bold;vertical-align:top;">session_filename</td><td style="vertical-align:top;">:</td><td><div>C:\\Disco D\\respaldo ricky\\Universidad\\Semestre 7\\lab general\\web2py_sprint2\\applications\\Virtualizacion\\sessions\\127.0.0.1-ead0a3b8-096a-43e9-aa3e-2f328b0e908e</div></td></tr><tr><td style="font-weight:bold;vertical-align:top;">session_hash</td><td style="vertical-align:top;">:</td><td><div>f7b5f90b5437d8b86365fc9fc3f351a7</div></td></tr><tr><td style="font-weight:bold;vertical-align:top;">session_id</td><td style="vertical-align:top;">:</td><td><div>127.0.0.1-ead0a3b8-096a-43e9-aa3e-2f328b0e908e</div></td></tr><tr><td style="font-weight:bold;vertical-align:top;">session_id_name</td><td style="vertical-align:top;">:</td><td><div>session_id_virtualizacion</div></td></tr><tr><td style="font-weight:bold;vertical-align:top;">session_locked</td><td style="vertical-align:top;">:</td><td><div>True</div></td></tr><tr><td style="font-weight:bold;vertical-align:top;">session_masterapp</td><td style="vertical-align:top;">:</td><td><div>Virtualizacion</div></td></tr><tr><td style="font-weight:bold;vertical-align:top;">session_new</td><td style="vertical-align:top;">:</td><td><div>False</div></td></tr><tr><td style="font-weight:bold;vertical-align:top;">session_storage_type</td><td style="vertical-align:top;">:</td><td><div>file</div></td></tr><tr><td style="font-weight:bold;vertical-align:top;">status</td><td style="vertical-align:top;">:</td><td><div>200</div></td></tr><tr><td style="font-weight:bold;vertical-align:top;">subtitle</td><td style="vertical-align:top;">:</td><td><div>powered by web2py</div></td></tr><tr><td style="font-weight:bold;vertical-align:top;">title</td><td style="vertical-align:top;">:</td><td><div>Gestor de virtualizacion</div></td></tr><tr><td style="font-weight:bold;vertical-align:top;">view</td><td style="vertical-align:top;">:</td><td><div>api_rest/get_programs_new.html</div></td></tr></table></div>'
tRp193
sS'locals'
p194
(dp195
S'vars'
p196
g45
sS'programs'
p197
S'<Rows (122)>'
p198
sS'data'
p199
S'[]'
p200
sg42
S'()'
p201
sS'fila'
p202
S"<Row {'modified_by': 17L, 't_project_archive': <... 4, 27, 15, 52, 48), 'f_program': 32L, 'id': 1L}>"
p203
sS'cont_aux'
p204
S'0'
sS'programa'
p205
S"<Row {'t_has_program_archive': <Set (t_has_progr...: <Set (t_program_archive.current_record = 32)>}>"
p206
sS'lista'
p207
S'[]'
p208
sS'projects'
p209
S'<Rows (1)>'
p210
sssS'traceback'
p211
S'Traceback (most recent call last):\n  File "C:\\Disco D\\respaldo ricky\\Universidad\\Semestre 7\\lab general\\web2py_sprint2\\gluon\\restricted.py", line 227, in restricted\n    exec ccode in environment\n  File "C:\\Disco D\\respaldo ricky\\Universidad\\Semestre 7\\lab general\\web2py_sprint2\\applications\\Virtualizacion\\controllers/api_rest.py", line 421, in <module>\n  File "C:\\Disco D\\respaldo ricky\\Universidad\\Semestre 7\\lab general\\web2py_sprint2\\gluon\\globals.py", line 417, in <lambda>\n    self._caller = lambda f: f()\n  File "C:\\Disco D\\respaldo ricky\\Universidad\\Semestre 7\\lab general\\web2py_sprint2\\gluon\\tools.py", line 4241, in f\n    return action(*a, **b)\n  File "C:\\Disco D\\respaldo ricky\\Universidad\\Semestre 7\\lab general\\web2py_sprint2\\gluon\\globals.py", line 380, in f\n    res = rest_action(*request.args, **request.vars)\n  File "C:\\Disco D\\respaldo ricky\\Universidad\\Semestre 7\\lab general\\web2py_sprint2\\applications\\Virtualizacion\\controllers/api_rest.py", line 52, in GET\n    data.append(dict(programa = f_program, virtualizado = 1, progreso = fila.f_program.f_progress))\nNameError: global name \'f_program\' is not defined\n'
p212
s.