(dp1
S'output'
p2
S"<type 'exceptions.SyntaxError'> invalid syntax (controllers/default.py, line 8)"
p3
sS'layer'
p4
S'C:\\Users\\user\\Documents\\universidad\\desarrollo de software\\web2py\\applications\\Virtualizacion\\controllers/default.py'
p5
sS'code'
p6
S'# -*- coding: utf-8 -*-\n### required - do no delete\n# Some imports\nfrom time import gmtime, strftime\nimport json\n\ndef user(): \n    print(form=auth())\n    return dict(form=auth())\ndef download(): return response.download(request,db)\ndef call(): return service()\n### end requires\n@auth.requires_login()\ndef index():\n    # id = auth.id  -> res = db(db.t_usuario.id == id ).select() -> res.f_type\n    #if es instruccional renderizar vista de instruccional ...\n    #return \n\n    res = db(db.t_program).select()\n    n = 0\n    res_n = 0\n    for row in res:\n        res_n=res_n+1\n    notificacion = db(db.t_notification.f_usuario_b == auth.user.id).select()\n    usuarios = []\n    for row in notificacion:\n        usuarios.append( db(db.t_usuario.id == row.f_usuario_a).select(db.t_usuario.f_first_name, distinct=False) )\n        n=n+1\n\n    usuarios_sistema = db(db.t_usuario).select()\n\n    return dict(query=res, length_query = res_n, notification = notificacion, length_notification = n, notification_emited = usuarios, users = usuarios_sistema, length_users = len(usuarios_sistema))\n\ndef error():\n    return dict()\n\n\n@auth.requires_login()\ndef create_notif():\n    user_emisor, user_receptor, titulo, contenido = auth.user.id, request.post_vars[\'user_receptor\'], request.post_vars[\'titulo\'], request.post_vars[\'contenido\']\n    select = db(db.t_usuario.f_first_name == user_receptor).select()\n    id_receptor = 0\n    for row in select:\n        id_receptor = row.id\n    db.t_notification.insert(\n        f_usuario_a = user_emisor,\n        f_usuario_b = id_receptor,\n        f_tittle = titulo,\n        f_viewed = False,\n        f_content = contenido\n        )    \n    return index()\n\n@auth.requires_login()\ndef insert():\n    user_name, name, last_name, user_type, email, password = request.post_vars[\'user_name\'],request.post_vars[\'name\'], request.post_vars[\'last_name\'], request.post_vars[\'user_type\'], request.post_vars[\'email\'], request.post_vars[\'password\']\n    db.t_usuario.insert(\n            f_username=user_name,\n            f_first_name=name,\n            f_last_name=last_name,           \n            f_email=email,\n            f_password=db.auth_user.password.requires[0](password)[0],\n            f_type_user=user_type,\n            f_notification="0"\n        )\n    db.auth_user.insert(\n            first_name=name,\n            last_name=last_name,           \n            email=email,\n            password=db.auth_user.password.requires[0](password)[0],           \n        )\n    return dict() \n\n@auth.requires_login()\ndef registrar_usuario():\n    return dict()\n\n@auth.requires_login()\ndef user_manage():\n    return dict()\n\n@auth.requires_login()\ndef course_manage():\n    form = SQLFORM.smartgrid(db.t_course,onupdate=auth.archive)\n    return locals()\n\n@auth.requires_login()\ndef has_course_manage():\n    form = SQLFORM.smartgrid(db.t_has_course,onupdate=auth.archive)\n    return locals()\n\n@auth.requires_login()\ndef register_user():\n    return dict()\n\n@auth.requires_login()\ndef dashboard():\n    return dict()\n\n@auth.requires_login()\ndef validar_form_recurso(form):\n    c = form.vars.f_name\n    t = form.vars.f_type\n    f = form.vars.f_format\n    d = form.vars.f_description\n    c = c.strip()\n    t = t.strip()\n    f = f.strip()\n    d = d.strip()\n    if c=="" or t=="" or f=="" or d=="":\n        form.errors.f_name = \'todos los campos deben estar llenos\'\n        form.errors.f_type = \'todos los campos deben estar llenos\'\n        form.errors.f_format = \'todos los campos deben estar llenos\'\n        form.errors.f_description = \'todos los campos deben estar llenos\'\n\n@auth.requires_login()\ndef validar_form_archivo(form):\n    c = form.vars.f_name\n    d = form.vars.f_description\n    a = form.vars.f_file\n    c = c.strip()\n    d = d.strip()\n    a = a.strip()\n    if c=="" or d=="" or a=="":\n        form.errors.f_name = \'todos los campos deben estar llenos\'\n        form.errors.f_description = \'todos los campos deben estar llenos\'\n        #form.vars.f_file = \'todos los campos deben estar llenos\'\n\n@auth.requires_login()\ndef recurso():\n    #form =db().select(db.t_resource.f_name, db.t_resource.f_code_course)\n    form = SQLFORM(\n        db.t_resource,\n        fields=[\'f_name\',\'f_code_course\',\'f_responsable\',\'f_type\',\'f_format\',\'f_description\',\'f_is_planilla\'],\n        deletable=True)\n    if form.process(onvalidation=validar_form_recurso).accepted:\n        response.flash = \'Recurso aceptado\'\n    elif form.errors:\n        response.flash = \'Error de formulario\'\n    return dict(form=form)\n\n@auth.requires_login()\ndef display_planillas():\n    form = SQLFORM.smartgrid(db.t_resource, constraints = dict(t_resource = db.t_resource.f_is_planilla == True),\n        onupdate=auth.archive,\n        deletable=False,\n        editable=False,\n        searchable=False,\n        create=False,\n        csv=False,\n        showbuttontext=False)\n    return locals()\n\n\n\n@auth.requires_login()\ndef display_resources():\n    query = db.t_resource.f_is_planilla == False\n    form = SQLFORM.smartgrid(\n        db.t_resource,\n        constraints = dict(t_resource = query),\n        onupdate=auth.archive,\n        deletable=False,\n        editable=False,\n        searchable=False,\n        create=False,\n        csv=False,\n        showbuttontext=False\n        )\n    return locals()\n\n\n@auth.requires_login()\ndef verificar_planillas():\n    id_resource = request.post_vars[\'id_resource\']\n    row = db(db.t_resource.id == id_resource).select().first()\n    row.update_record(f_is_verificado=True)\n    redirect(URL(\'display_planillas\'))  \n    #return locals()\n\n@auth.requires_login()\ndef verificar_resources():\n    id_resource = request.post_vars[\'id_resource\']\n    row = db(db.t_resource.id == id_resource).select().first()\n    row.update_record(f_is_verificado=True)\n    redirect(URL(\'display_resources\'))  \n    #return locals()\n\n@auth.requires_login()\ndef desverificar_resources():\n    id_resource = request.post_vars[\'id_resource\']\n    comentario = request.post_vars[\'comment\']\n    row = db(db.t_resource.id == id_resource).select().first()\n    row.update_record(f_is_verificado=False)\n\n    course = db.t_comments.insert(\n        recurso = id_resource,\n        texto = comentario,\n    )\n\n    redirect(URL(\'display_resources\'))  \n    #return locals()\n\n\ndef display_file_form():\n    record = db.t_file(request.args(0))\n    form = SQLFORM(db.t_file, record, deletable=True,\n                  upload=URL(\'download\'))\n\n    if form.process(onvalidation=validar_form_archivo).accepted:\n       response.flash = \'form accepted\'\n    elif form.errors:\n       response.flash = \'form has errors\'\n    return dict(form=form)\n\ndef display_files():\n    form = SQLFORM.smartgrid(db.t_file,onupdate=auth.archive)\n    return locals()\n    \n@auth.requires_login()\ndef program_manage():\n    return dict()\n\n@auth.requires_login()\ndef program_creator():\n    program_type = request.post_vars[\'program_type\']\n    program_name = ""\n\n    if (program_type == "carreraLarga"):\n        program_name = "Carrera Larga"\n    elif (program_type == "carreraCorta"):\n        program_name = "Carrera Corta"\n    elif (program_type == "postgrado"):\n        program_name = "Postgrado"\n    elif (program_type == "diplomado"):\n        program_name = "Diplomado"\n    elif (program_type == "curso"):\n        program_name = "Curso"\n    elif (program_type == "programa"):\n        program_name = "Programa"\n\n    data = {\'program_type\': program_type, \'program_name\': program_name}\n    return data\n\n@auth.requires_login()\ndef program_creator_courses():\n    program_type = request.get_vars[\'type\']\n    duration = int(request.post_vars[\'years\'])\n    modality = request.post_vars[\'modality\']\n    name = request.post_vars[\'name\']\n    code = request.post_vars[\'code\']\n\n   # nulo = db(db.t_course.f_code == code).select()\n   # if nulo:\n\n   # print(nulo)\n   # print("HOLA")\n\n    # Getting size\n    size = 0\n    if (modality==\'trimestral\'):\n        size = 3\n    elif (modality==\'semestral\'):\n        size = 6\n    elif (modality==\'anual\'):\n        size = 12\n\n    # Create Database Entries\n    if (program_type in (\'carreraLarga\', \'carreraCorta\', \'postgrado\')):\n        # Nivel de anidacion I\n        level_one_id = db.t_program.insert(\n            f_name = name,\n            f_modality = modality,\n            f_code = code,\n            f_duration = duration,\n            f_level = 0\n        )\n\n        complete_duration = int(duration)*12/size\n\n        programsIDs = list()\n\n        for i in range(0, complete_duration):\n            level_two_id = db.t_program.insert(\n                f_name = name + \' - \' + modality + \' - \' + str(i),\n                f_modality = None,\n                f_code = code,\n                f_duration = size,\n                f_level = 1\n            )\n\n            db.t_has_program.insert(\n                f_program_a = level_one_id,\n                f_program_b = level_two_id\n            )\n\n            programsIDs.append(level_two_id)\n    elif (program_type in (\'diplomado\', \'curso\') ):\n        complete_duration = int(duration)*12/size\n\n        # Nivel de anidacion 0 \n        level_one_id = db.t_program.insert(\n            f_name = name,\n            f_modality = modality,\n            f_code = code,\n            f_duration = duration\n        )\n        programsIDs.append(level_one_id)\n    elif (program_type == \'programa\'):\n        # Nivel de anidacion variable\n        complete_duration = int(duration)*12/size\n        pass\n\n    return {\'duration\': complete_duration, \'size\': size, \'modality\' : modality, \'programs\': programsIDs}\n\n@auth.requires_login()\ndef save_course():\n    program = request.post_vars[\'program\']\n    course_code = request.post_vars[\'course_code\']\n    course_name = request.post_vars[\'course_name\']\n    message = \'\'\n    status = False\n    \n    # DB Inserts\n    validate = False\n    sanity_check_course = db(db.t_course.f_code == course_code).select()\n\n    for row in sanity_check_course:\n        validate = True\n\n    if ( not validate ):\n        print("This case is triggered")\n        course = db.t_course.insert(\n            f_code = course_code,\n            f_name = course_name,\n        )\n    else:\n        course = sanity_check_course[0]\n\n    has_course = db.t_has_course.insert(\n        f_program_has = program,\n        f_course_has = course\n    );\n\n    status = has_course != None and course != None\n\n    data = {\'course\': course, \'has_course\': has_course, \'course_name\': course_name, \'status\': status}\n    return data\n\n\n@auth.requires_login()\ndef project_manage():\n    return dict()\n\n\n@auth.requires_login()\ndef project_asign_responsibles():\n    codigo = request.get_vars[\'codigo\']\n    data = list()\n    courses = db(db.t_has_course.f_program_has.belongs(db.t_program.f_code == codigo)).select()\n    for course in courses:\n        data.append(db(db.t_course.id == course.f_course_has).select())\n    return dict(courses_ = data)\n\n\n@auth.requires_login()\ndef get_user_names():\n    usernames = db(db.auth_user).select(db.auth_user.first_name, db.auth_user.last_name)\n    names = \'\';\n    for name in usernames:\n        names = names + str(name[\'auth_user.first_name\']) + \' \' + str(name[\'auth_user.last_name\']) + \'|\'\n    data = {\'usernames\': names}\n    return data\n\n@auth.requires_login()\ndef profesor():\n    return dict()\n\n@auth.requires_login()\ndef disenador():\n    return dict()\n\n\n\nresponse._vars=response._caller(index)\n'
p7
sS'snapshot'
p8
(dp9
S'exception'
p10
(dp11
S'__getslice__'
p12
S"<method-wrapper '__getslice__' of exceptions.SyntaxError object>"
p13
sS'text'
p14
S"'    print(form=auth())\\n'"
p15
sS'__str__'
p16
S"<method-wrapper '__str__' of exceptions.SyntaxError object>"
p17
sS'__reduce__'
p18
S'<built-in method __reduce__ of exceptions.SyntaxError object>'
p19
sS'__dict__'
p20
S'{}'
p21
sS'__sizeof__'
p22
S'<built-in method __sizeof__ of exceptions.SyntaxError object>'
p23
sS'__init__'
p24
S"<method-wrapper '__init__' of exceptions.SyntaxError object>"
p25
sS'__setattr__'
p26
S"<method-wrapper '__setattr__' of exceptions.SyntaxError object>"
p27
sS'__reduce_ex__'
p28
S'<built-in method __reduce_ex__ of exceptions.SyntaxError object>'
p29
sS'__new__'
p30
S'<built-in method __new__ of type object>'
p31
sS'__format__'
p32
S'<built-in method __format__ of exceptions.SyntaxError object>'
p33
sS'__class__'
p34
S"<type 'exceptions.SyntaxError'>"
p35
sS'filename'
p36
S"r'C:\\Users\\user\\Documents\\universidad\\desarrollo d...pplications\\Virtualizacion\\controllers/default.py'"
p37
sS'lineno'
p38
S'8'
sS'msg'
p39
S"'invalid syntax'"
p40
sS'__doc__'
p41
S"'Invalid syntax.'"
p42
sS'__getitem__'
p43
S"<method-wrapper '__getitem__' of exceptions.SyntaxError object>"
p44
sS'__setstate__'
p45
S'<built-in method __setstate__ of exceptions.SyntaxError object>'
p46
sS'__getattribute__'
p47
S"<method-wrapper '__getattribute__' of exceptions.SyntaxError object>"
p48
sS'print_file_and_line'
p49
S'None'
p50
sS'args'
p51
S"('invalid syntax', (r'C:\\Users\\user\\Documents\\universidad\\desarrollo d...pplications\\Virtualizacion\\controllers/default.py', 8, 15, '    print(form=auth())\\n'))"
p52
sS'__subclasshook__'
p53
S'<built-in method __subclasshook__ of type object>'
p54
sS'offset'
p55
S'15'
p56
sS'__unicode__'
p57
S'<built-in method __unicode__ of exceptions.SyntaxError object>'
p58
sS'__delattr__'
p59
S"<method-wrapper '__delattr__' of exceptions.SyntaxError object>"
p60
sS'__repr__'
p61
S"<method-wrapper '__repr__' of exceptions.SyntaxError object>"
p62
sS'__hash__'
p63
S"<method-wrapper '__hash__' of exceptions.SyntaxError object>"
p64
ssS'evalue'
p65
S'invalid syntax (controllers/default.py, line 8)'
p66
sS'request'
p67
cgluon.html
XML_unpickle
p68
(S's\xcfb\x00\x00<div><table><tr><td style="font-weight:bold;vertical-align:top;">ajax</td><td style="vertical-align:top;">:</td><td><div>False</div></td></tr><tr><td style="font-weight:bold;vertical-align:top;">application</td><td style="vertical-align:top;">:</td><td><div>Virtualizacion</div></td></tr><tr><td style="font-weight:bold;vertical-align:top;">args</td><td style="vertical-align:top;">:</td><td><div><table></table></div></td></tr><tr><td style="font-weight:bold;vertical-align:top;">cid</td><td style="vertical-align:top;">:</td><td><div>None</div></td></tr><tr><td style="font-weight:bold;vertical-align:top;">client</td><td style="vertical-align:top;">:</td><td><div>127.0.0.1</div></td></tr><tr><td style="font-weight:bold;vertical-align:top;">controller</td><td style="vertical-align:top;">:</td><td><div>default</div></td></tr><tr><td style="font-weight:bold;vertical-align:top;">cookies</td><td style="vertical-align:top;">:</td><td><div><table><tr><td style="font-weight:bold;vertical-align:top;">session_id_admin</td><td style="vertical-align:top;">:</td><td><div>127.0.0.1-93dbce53-5629-4b5d-a392-059d850c627a<table><tr><td style="font-weight:bold;vertical-align:top;">comment</td><td style="vertical-align:top;">:</td><td><div></div></td></tr><tr><td style="font-weight:bold;vertical-align:top;">domain</td><td style="vertical-align:top;">:</td><td><div></div></td></tr><tr><td style="font-weight:bold;vertical-align:top;">expires</td><td style="vertical-align:top;">:</td><td><div></div></td></tr><tr><td style="font-weight:bold;vertical-align:top;">httponly</td><td style="vertical-align:top;">:</td><td><div></div></td></tr><tr><td style="font-weight:bold;vertical-align:top;">max-age</td><td style="vertical-align:top;">:</td><td><div></div></td></tr><tr><td style="font-weight:bold;vertical-align:top;">path</td><td style="vertical-align:top;">:</td><td><div></div></td></tr><tr><td style="font-weight:bold;vertical-align:top;">secure</td><td style="vertical-align:top;">:</td><td><div></div></td></tr><tr><td style="font-weight:bold;vertical-align:top;">version</td><td style="vertical-align:top;">:</td><td><div></div></td></tr></table></div></td></tr><tr><td style="font-weight:bold;vertical-align:top;">session_id_virtualizacion</td><td style="vertical-align:top;">:</td><td><div>127.0.0.1-8fc45431-d9b0-47d5-be52-1f26ea5dae7f<table><tr><td style="font-weight:bold;vertical-align:top;">comment</td><td style="vertical-align:top;">:</td><td><div></div></td></tr><tr><td style="font-weight:bold;vertical-align:top;">domain</td><td style="vertical-align:top;">:</td><td><div></div></td></tr><tr><td style="font-weight:bold;vertical-align:top;">expires</td><td style="vertical-align:top;">:</td><td><div></div></td></tr><tr><td style="font-weight:bold;vertical-align:top;">httponly</td><td style="vertical-align:top;">:</td><td><div></div></td></tr><tr><td style="font-weight:bold;vertical-align:top;">max-age</td><td style="vertical-align:top;">:</td><td><div></div></td></tr><tr><td style="font-weight:bold;vertical-align:top;">path</td><td style="vertical-align:top;">:</td><td><div></div></td></tr><tr><td style="font-weight:bold;vertical-align:top;">secure</td><td style="vertical-align:top;">:</td><td><div></div></td></tr><tr><td style="font-weight:bold;vertical-align:top;">version</td><td style="vertical-align:top;">:</td><td><div></div></td></tr></table></div></td></tr><tr><td style="font-weight:bold;vertical-align:top;">session_id_welcome</td><td style="vertical-align:top;">:</td><td><div>127.0.0.1-eec02bd2-2a16-4fa4-a2fb-d428e2ae4122<table><tr><td style="font-weight:bold;vertical-align:top;">comment</td><td style="vertical-align:top;">:</td><td><div></div></td></tr><tr><td style="font-weight:bold;vertical-align:top;">domain</td><td style="vertical-align:top;">:</td><td><div></div></td></tr><tr><td style="font-weight:bold;vertical-align:top;">expires</td><td style="vertical-align:top;">:</td><td><div></div></td></tr><tr><td style="font-weight:bold;vertical-align:top;">httponly</td><td style="vertical-align:top;">:</td><td><div></div></td></tr><tr><td style="font-weight:bold;vertical-align:top;">max-age</td><td style="vertical-align:top;">:</td><td><div></div></td></tr><tr><td style="font-weight:bold;vertical-align:top;">path</td><td style="vertical-align:top;">:</td><td><div></div></td></tr><tr><td style="font-weight:bold;vertical-align:top;">secure</td><td style="vertical-align:top;">:</td><td><div></div></td></tr><tr><td style="font-weight:bold;vertical-align:top;">version</td><td style="vertical-align:top;">:</td><td><div></div></td></tr></table></div></td></tr></table></div></td></tr><tr><td style="font-weight:bold;vertical-align:top;">env</td><td style="vertical-align:top;">:</td><td><div><table><tr><td style="font-weight:bold;vertical-align:top;">HTTP_ACCEPT</td><td style="vertical-align:top;">:</td><td><div>text/html,application/xhtml+xml,application/xml;q=0.9,image/webp,*/*;q=0.8</div></td></tr><tr><td style="font-weight:bold;vertical-align:top;">HTTP_ACCEPT_ENCODING</td><td style="vertical-align:top;">:</td><td><div>gzip, deflate, sdch, br</div></td></tr><tr><td style="font-weight:bold;vertical-align:top;">HTTP_ACCEPT_LANGUAGE</td><td style="vertical-align:top;">:</td><td><div>es,en-US;q=0.8,en;q=0.6</div></td></tr><tr><td style="font-weight:bold;vertical-align:top;">HTTP_CACHE_CONTROL</td><td style="vertical-align:top;">:</td><td><div>max-age=0</div></td></tr><tr><td style="font-weight:bold;vertical-align:top;">HTTP_CONNECTION</td><td style="vertical-align:top;">:</td><td><div>keep-alive</div></td></tr><tr><td style="font-weight:bold;vertical-align:top;">HTTP_COOKIE</td><td style="vertical-align:top;">:</td><td><div>session_id_welcome=127.0.0.1-eec02bd2-2a16-4fa4-a2fb-d428e2ae4122; session_id_admin=127.0.0.1-93dbce53-5629-4b5d-a392-059d850c627a; session_id_virtualizacion=127.0.0.1-8fc45431-d9b0-47d5-be52-1f26ea5dae7f</div></td></tr><tr><td style="font-weight:bold;vertical-align:top;">HTTP_HOST</td><td style="vertical-align:top;">:</td><td><div>127.0.0.1:8000</div></td></tr><tr><td style="font-weight:bold;vertical-align:top;">HTTP_REFERER</td><td style="vertical-align:top;">:</td><td><div>http://127.0.0.1:8000/Virtualizacion/default/user/login?_next=/Virtualizacion/default/index</div></td></tr><tr><td style="font-weight:bold;vertical-align:top;">HTTP_UPGRADE_INSECURE_REQUESTS</td><td style="vertical-align:top;">:</td><td><div>1</div></td></tr><tr><td style="font-weight:bold;vertical-align:top;">HTTP_USER_AGENT</td><td style="vertical-align:top;">:</td><td><div>Mozilla/5.0 (Windows NT 6.1; Win64; x64) AppleWebKit/537.36 (KHTML, like Gecko) Chrome/58.0.3029.110 Safari/537.36</div></td></tr><tr><td style="font-weight:bold;vertical-align:top;">PATH_INFO</td><td style="vertical-align:top;">:</td><td><div>/Virtualizacion/default/index</div></td></tr><tr><td style="font-weight:bold;vertical-align:top;">QUERY_STRING</td><td style="vertical-align:top;">:</td><td><div></div></td></tr><tr><td style="font-weight:bold;vertical-align:top;">REMOTE_ADDR</td><td style="vertical-align:top;">:</td><td><div>127.0.0.1</div></td></tr><tr><td style="font-weight:bold;vertical-align:top;">REMOTE_PORT</td><td style="vertical-align:top;">:</td><td><div>56979</div></td></tr><tr><td style="font-weight:bold;vertical-align:top;">REQUEST_METHOD</td><td style="vertical-align:top;">:</td><td><div>GET</div></td></tr><tr><td style="font-weight:bold;vertical-align:top;">SCRIPT_NAME</td><td style="vertical-align:top;">:</td><td><div></div></td></tr><tr><td style="font-weight:bold;vertical-align:top;">SERVER_NAME</td><td style="vertical-align:top;">:</td><td><div>Uriel</div></td></tr><tr><td style="font-weight:bold;vertical-align:top;">SERVER_PORT</td><td style="vertical-align:top;">:</td><td><div>8000</div></td></tr><tr><td style="font-weight:bold;vertical-align:top;">SERVER_PROTOCOL</td><td style="vertical-align:top;">:</td><td><div>HTTP/1.1</div></td></tr><tr><td style="font-weight:bold;vertical-align:top;">SERVER_SOFTWARE</td><td style="vertical-align:top;">:</td><td><div>Rocket 1.2.6</div></td></tr><tr><td style="font-weight:bold;vertical-align:top;">app_folders</td><td style="vertical-align:top;">:</td><td><div>set([&#x27;C:\\\\Users\\\\user\\\\Documents\\\\universidad\\\\desarrollo de software\\\\web2py\\\\applications\\\\Virtualizacion\\\\&#x27;, &#x27;C:\\\\Users\\\\user\\\\Documents\\\\universidad\\\\desarrollo de software\\\\web2py\\\\applications\\\\welcome\\\\&#x27;, &#x27;C:\\\\Users\\\\user\\\\Documents\\\\universidad\\\\desarrollo de software\\\\web2py\\\\applications\\\\admin\\\\&#x27;])</div></td></tr><tr><td style="font-weight:bold;vertical-align:top;">applications_parent</td><td style="vertical-align:top;">:</td><td><div>C:\\Users\\user\\Documents\\universidad\\desarrollo de software\\web2py</div></td></tr><tr><td style="font-weight:bold;vertical-align:top;">cmd_args</td><td style="vertical-align:top;">:</td><td><div><table></table></div></td></tr><tr><td style="font-weight:bold;vertical-align:top;">cmd_options</td><td style="vertical-align:top;">:</td><td><div>&lt;Values at 0x302af30: {&#x27;verbose&#x27;: False, &#x27;ip&#x27;: &#x27;127.0.0.1&#x27;, &#x27;debuglevel&#x27;: 30, &#x27;with_scheduler&#x27;: False, &#x27;shutdown_timeout&#x27;: 5, &#x27;taskbar&#x27;: False, &#x27;with_coverage&#x27;: False, &#x27;pid_filename&#x27;: &#x27;httpserver.pid&#x27;, &#x27;maxthreads&#x27;: None, &#x27;softcron&#x27;: False, &#x27;server_name&#x27;: &#x27;Uriel&#x27;, &#x27;bpython&#x27;: False, &#x27;nogui&#x27;: False, &#x27;port&#x27;: 8000, &#x27;print_errors&#x27;: False, &#x27;extcron&#x27;: False, &#x27;runcron&#x27;: False, &#x27;run_system_tests&#x27;: False, &#x27;test&#x27;: None, &#x27;folder&#x27;: &#x27;C:\\\\Users\\\\user\\\\Documents\\\\universidad\\\\desarrollo de software\\\\web2py&#x27;, &#x27;config&#x27;: &#x27;&#x27;, &#x27;minthreads&#x27;: None, &#x27;shell&#x27;: None, &#x27;run&#x27;: &#x27;&#x27;, &#x27;log_filename&#x27;: &#x27;httpserver.log&#x27;, &#x27;profiler_dir&#x27;: None, &#x27;args&#x27;: [&#x27;&#x27;], &#x27;socket_timeout&#x27;: 5, &#x27;ssl_ca_certificate&#x27;: None, &#x27;scheduler&#x27;: None, &#x27;interfaces&#x27;: None, &#x27;ssl_private_key&#x27;: &#x27;&#x27;, &#x27;gae&#x27;: None, &#x27;password&#x27;: &#x27;******&#x27;, &#x27;request_queue_size&#x27;: 5, &#x27;ssl_certificate&#x27;: &#x27;&#x27;, &#x27;cronjob&#x27;: False, &#x27;numthreads&#x27;: None, &#x27;quiet&#x27;: False, &#x27;import_models&#x27;: False, &#x27;timeout&#x27;: 10, &#x27;plain&#x27;: False, &#x27;nobanner&#x27;: False}&gt;</div></td></tr><tr><td style="font-weight:bold;vertical-align:top;">db_sessions</td><td style="vertical-align:top;">:</td><td><div>set([])</div></td></tr><tr><td style="font-weight:bold;vertical-align:top;">debugging</td><td style="vertical-align:top;">:</td><td><div>False</div></td></tr><tr><td style="font-weight:bold;vertical-align:top;">gluon_parent</td><td style="vertical-align:top;">:</td><td><div>C:\\Users\\user\\Documents\\universidad\\desarrollo de software\\web2py</div></td></tr><tr><td style="font-weight:bold;vertical-align:top;">http_accept</td><td style="vertical-align:top;">:</td><td><div>text/html,application/xhtml+xml,application/xml;q=0.9,image/webp,*/*;q=0.8</div></td></tr><tr><td style="font-weight:bold;vertical-align:top;">http_accept_encoding</td><td style="vertical-align:top;">:</td><td><div>gzip, deflate, sdch, br</div></td></tr><tr><td style="font-weight:bold;vertical-align:top;">http_accept_language</td><td style="vertical-align:top;">:</td><td><div>es,en-US;q=0.8,en;q=0.6</div></td></tr><tr><td style="font-weight:bold;vertical-align:top;">http_cache_control</td><td style="vertical-align:top;">:</td><td><div>max-age=0</div></td></tr><tr><td style="font-weight:bold;vertical-align:top;">http_connection</td><td style="vertical-align:top;">:</td><td><div>keep-alive</div></td></tr><tr><td style="font-weight:bold;vertical-align:top;">http_cookie</td><td style="vertical-align:top;">:</td><td><div>session_id_welcome=127.0.0.1-eec02bd2-2a16-4fa4-a2fb-d428e2ae4122; session_id_admin=127.0.0.1-93dbce53-5629-4b5d-a392-059d850c627a; session_id_virtualizacion=127.0.0.1-8fc45431-d9b0-47d5-be52-1f26ea5dae7f</div></td></tr><tr><td style="font-weight:bold;vertical-align:top;">http_host</td><td style="vertical-align:top;">:</td><td><div>127.0.0.1:8000</div></td></tr><tr><td style="font-weight:bold;vertical-align:top;">http_referer</td><td style="vertical-align:top;">:</td><td><div>http://127.0.0.1:8000/Virtualizacion/default/user/login?_next=/Virtualizacion/default/index</div></td></tr><tr><td style="font-weight:bold;vertical-align:top;">http_upgrade_insecure_requests</td><td style="vertical-align:top;">:</td><td><div>1</div></td></tr><tr><td style="font-weight:bold;vertical-align:top;">http_user_agent</td><td style="vertical-align:top;">:</td><td><div>Mozilla/5.0 (Windows NT 6.1; Win64; x64) AppleWebKit/537.36 (KHTML, like Gecko) Chrome/58.0.3029.110 Safari/537.36</div></td></tr><tr><td style="font-weight:bold;vertical-align:top;">is_jython</td><td style="vertical-align:top;">:</td><td><div>False</div></td></tr><tr><td style="font-weight:bold;vertical-align:top;">is_pypy</td><td style="vertical-align:top;">:</td><td><div>False</div></td></tr><tr><td style="font-weight:bold;vertical-align:top;">is_source</td><td style="vertical-align:top;">:</td><td><div>False</div></td></tr><tr><td style="font-weight:bold;vertical-align:top;">local_hosts</td><td style="vertical-align:top;">:</td><td><div><table><tr><td><div>fe80::548d:31a:7304:a982%31</div></td></tr><tr><td><div>fe80::f43e:57be:b8fd:2bb0%30</div></td></tr><tr><td><div>192.168.75.1</div></td></tr><tr><td><div>2620:9b::190c:282d</div></td></tr><tr><td><div>2001:0:9d38:953c:c60:19f7:3f57:fefa</div></td></tr><tr><td><div>::ffff:127.0.0.1</div></td></tr><tr><td><div>::1</div></td></tr><tr><td><div>fe80::1146:83f2:5ef1:25a8%27</div></td></tr><tr><td><div>192.168.1.5</div></td></tr><tr><td><div>Uriel</div></td></tr><tr><td><div>fe80::c60:19f7:3f57:fefa%26</div></td></tr><tr><td><div>127.0.0.1</div></td></tr><tr><td><div>192.168.56.1</div></td></tr></table></div></td></tr><tr><td style="font-weight:bold;vertical-align:top;">path_info</td><td style="vertical-align:top;">:</td><td><div>/Virtualizacion/default/index</div></td></tr><tr><td style="font-weight:bold;vertical-align:top;">query_string</td><td style="vertical-align:top;">:</td><td><div></div></td></tr><tr><td style="font-weight:bold;vertical-align:top;">remote_addr</td><td style="vertical-align:top;">:</td><td><div>127.0.0.1</div></td></tr><tr><td style="font-weight:bold;vertical-align:top;">remote_port</td><td style="vertical-align:top;">:</td><td><div>56979</div></td></tr><tr><td style="font-weight:bold;vertical-align:top;">request_method</td><td style="vertical-align:top;">:</td><td><div>GET</div></td></tr><tr><td style="font-weight:bold;vertical-align:top;">request_uri</td><td style="vertical-align:top;">:</td><td><div>/Virtualizacion/default/index</div></td></tr><tr><td style="font-weight:bold;vertical-align:top;">script_name</td><td style="vertical-align:top;">:</td><td><div></div></td></tr><tr><td style="font-weight:bold;vertical-align:top;">server_name</td><td style="vertical-align:top;">:</td><td><div>Uriel</div></td></tr><tr><td style="font-weight:bold;vertical-align:top;">server_port</td><td style="vertical-align:top;">:</td><td><div>8000</div></td></tr><tr><td style="font-weight:bold;vertical-align:top;">server_protocol</td><td style="vertical-align:top;">:</td><td><div>HTTP/1.1</div></td></tr><tr><td style="font-weight:bold;vertical-align:top;">server_software</td><td style="vertical-align:top;">:</td><td><div>Rocket 1.2.6</div></td></tr><tr><td style="font-weight:bold;vertical-align:top;">web2py_path</td><td style="vertical-align:top;">:</td><td><div>C:\\Users\\user\\Documents\\universidad\\desarrollo de software\\web2py</div></td></tr><tr><td style="font-weight:bold;vertical-align:top;">web2py_version</td><td style="vertical-align:top;">:</td><td><div>2.14.6-stable+timestamp.2016.05.10.00.21.47</div></td></tr><tr><td style="font-weight:bold;vertical-align:top;">wsgi.errors</td><td style="vertical-align:top;">:</td><td><div>&lt;open file &#x27;&lt;stderr&gt;&#x27;, mode &#x27;w&#x27; at 0x01DCD0D0&gt;</div></td></tr><tr><td style="font-weight:bold;vertical-align:top;">wsgi.file_wrapper</td><td style="vertical-align:top;">:</td><td><div>&lt;class wsgiref.util.FileWrapper at 0x0371A110&gt;</div></td></tr><tr><td style="font-weight:bold;vertical-align:top;">wsgi.input</td><td style="vertical-align:top;">:</td><td><div>&lt;socket._fileobject object at 0x0A3A0630&gt;</div></td></tr><tr><td style="font-weight:bold;vertical-align:top;">wsgi.multiprocess</td><td style="vertical-align:top;">:</td><td><div>False</div></td></tr><tr><td style="font-weight:bold;vertical-align:top;">wsgi.multithread</td><td style="vertical-align:top;">:</td><td><div>True</div></td></tr><tr><td style="font-weight:bold;vertical-align:top;">wsgi.run_once</td><td style="vertical-align:top;">:</td><td><div>False</div></td></tr><tr><td style="font-weight:bold;vertical-align:top;">wsgi.url_scheme</td><td style="vertical-align:top;">:</td><td><div>http</div></td></tr><tr><td style="font-weight:bold;vertical-align:top;">wsgi.version</td><td style="vertical-align:top;">:</td><td><div><table><tr><td><div>1</div></td></tr><tr><td><div>0</div></td></tr></table></div></td></tr><tr><td style="font-weight:bold;vertical-align:top;">wsgi_errors</td><td style="vertical-align:top;">:</td><td><div>&lt;open file &#x27;&lt;stderr&gt;&#x27;, mode &#x27;w&#x27; at 0x01DCD0D0&gt;</div></td></tr><tr><td style="font-weight:bold;vertical-align:top;">wsgi_file_wrapper</td><td style="vertical-align:top;">:</td><td><div>&lt;class wsgiref.util.FileWrapper at 0x0371A110&gt;</div></td></tr><tr><td style="font-weight:bold;vertical-align:top;">wsgi_input</td><td style="vertical-align:top;">:</td><td><div>&lt;socket._fileobject object at 0x0A3A0630&gt;</div></td></tr><tr><td style="font-weight:bold;vertical-align:top;">wsgi_multiprocess</td><td style="vertical-align:top;">:</td><td><div>False</div></td></tr><tr><td style="font-weight:bold;vertical-align:top;">wsgi_multithread</td><td style="vertical-align:top;">:</td><td><div>True</div></td></tr><tr><td style="font-weight:bold;vertical-align:top;">wsgi_run_once</td><td style="vertical-align:top;">:</td><td><div>False</div></td></tr><tr><td style="font-weight:bold;vertical-align:top;">wsgi_url_scheme</td><td style="vertical-align:top;">:</td><td><div>http</div></td></tr><tr><td style="font-weight:bold;vertical-align:top;">wsgi_version</td><td style="vertical-align:top;">:</td><td><div><table><tr><td><div>1</div></td></tr><tr><td><div>0</div></td></tr></table></div></td></tr></table></div></td></tr><tr><td style="font-weight:bold;vertical-align:top;">extension</td><td style="vertical-align:top;">:</td><td><div>html</div></td></tr><tr><td style="font-weight:bold;vertical-align:top;">folder</td><td style="vertical-align:top;">:</td><td><div>C:\\Users\\user\\Documents\\universidad\\desarrollo de software\\web2py\\applications\\Virtualizacion\\</div></td></tr><tr><td style="font-weight:bold;vertical-align:top;">function</td><td style="vertical-align:top;">:</td><td><div>index</div></td></tr><tr><td style="font-weight:bold;vertical-align:top;">global_settings</td><td style="vertical-align:top;">:</td><td><div><table><tr><td style="font-weight:bold;vertical-align:top;">app_folders</td><td style="vertical-align:top;">:</td><td><div>set([&#x27;C:\\\\Users\\\\user\\\\Documents\\\\universidad\\\\desarrollo de software\\\\web2py\\\\applications\\\\Virtualizacion\\\\&#x27;, &#x27;C:\\\\Users\\\\user\\\\Documents\\\\universidad\\\\desarrollo de software\\\\web2py\\\\applications\\\\welcome\\\\&#x27;, &#x27;C:\\\\Users\\\\user\\\\Documents\\\\universidad\\\\desarrollo de software\\\\web2py\\\\applications\\\\admin\\\\&#x27;])</div></td></tr><tr><td style="font-weight:bold;vertical-align:top;">applications_parent</td><td style="vertical-align:top;">:</td><td><div>C:\\Users\\user\\Documents\\universidad\\desarrollo de software\\web2py</div></td></tr><tr><td style="font-weight:bold;vertical-align:top;">cmd_args</td><td style="vertical-align:top;">:</td><td><div><table></table></div></td></tr><tr><td style="font-weight:bold;vertical-align:top;">cmd_options</td><td style="vertical-align:top;">:</td><td><div>&lt;Values at 0x302af30: {&#x27;verbose&#x27;: False, &#x27;ip&#x27;: &#x27;127.0.0.1&#x27;, &#x27;debuglevel&#x27;: 30, &#x27;with_scheduler&#x27;: False, &#x27;shutdown_timeout&#x27;: 5, &#x27;taskbar&#x27;: False, &#x27;with_coverage&#x27;: False, &#x27;pid_filename&#x27;: &#x27;httpserver.pid&#x27;, &#x27;maxthreads&#x27;: None, &#x27;softcron&#x27;: False, &#x27;server_name&#x27;: &#x27;Uriel&#x27;, &#x27;bpython&#x27;: False, &#x27;nogui&#x27;: False, &#x27;port&#x27;: 8000, &#x27;print_errors&#x27;: False, &#x27;extcron&#x27;: False, &#x27;runcron&#x27;: False, &#x27;run_system_tests&#x27;: False, &#x27;test&#x27;: None, &#x27;folder&#x27;: &#x27;C:\\\\Users\\\\user\\\\Documents\\\\universidad\\\\desarrollo de software\\\\web2py&#x27;, &#x27;config&#x27;: &#x27;&#x27;, &#x27;minthreads&#x27;: None, &#x27;shell&#x27;: None, &#x27;run&#x27;: &#x27;&#x27;, &#x27;log_filename&#x27;: &#x27;httpserver.log&#x27;, &#x27;profiler_dir&#x27;: None, &#x27;args&#x27;: [&#x27;&#x27;], &#x27;socket_timeout&#x27;: 5, &#x27;ssl_ca_certificate&#x27;: None, &#x27;scheduler&#x27;: None, &#x27;interfaces&#x27;: None, &#x27;ssl_private_key&#x27;: &#x27;&#x27;, &#x27;gae&#x27;: None, &#x27;password&#x27;: &#x27;******&#x27;, &#x27;request_queue_size&#x27;: 5, &#x27;ssl_certificate&#x27;: &#x27;&#x27;, &#x27;cronjob&#x27;: False, &#x27;numthreads&#x27;: None, &#x27;quiet&#x27;: False, &#x27;import_models&#x27;: False, &#x27;timeout&#x27;: 10, &#x27;plain&#x27;: False, &#x27;nobanner&#x27;: False}&gt;</div></td></tr><tr><td style="font-weight:bold;vertical-align:top;">db_sessions</td><td style="vertical-align:top;">:</td><td><div>set([])</div></td></tr><tr><td style="font-weight:bold;vertical-align:top;">debugging</td><td style="vertical-align:top;">:</td><td><div>False</div></td></tr><tr><td style="font-weight:bold;vertical-align:top;">gluon_parent</td><td style="vertical-align:top;">:</td><td><div>C:\\Users\\user\\Documents\\universidad\\desarrollo de software\\web2py</div></td></tr><tr><td style="font-weight:bold;vertical-align:top;">is_jython</td><td style="vertical-align:top;">:</td><td><div>False</div></td></tr><tr><td style="font-weight:bold;vertical-align:top;">is_pypy</td><td style="vertical-align:top;">:</td><td><div>False</div></td></tr><tr><td style="font-weight:bold;vertical-align:top;">is_source</td><td style="vertical-align:top;">:</td><td><div>False</div></td></tr><tr><td style="font-weight:bold;vertical-align:top;">local_hosts</td><td style="vertical-align:top;">:</td><td><div><table><tr><td><div>fe80::548d:31a:7304:a982%31</div></td></tr><tr><td><div>fe80::f43e:57be:b8fd:2bb0%30</div></td></tr><tr><td><div>192.168.75.1</div></td></tr><tr><td><div>2620:9b::190c:282d</div></td></tr><tr><td><div>2001:0:9d38:953c:c60:19f7:3f57:fefa</div></td></tr><tr><td><div>::ffff:127.0.0.1</div></td></tr><tr><td><div>::1</div></td></tr><tr><td><div>fe80::1146:83f2:5ef1:25a8%27</div></td></tr><tr><td><div>192.168.1.5</div></td></tr><tr><td><div>Uriel</div></td></tr><tr><td><div>fe80::c60:19f7:3f57:fefa%26</div></td></tr><tr><td><div>127.0.0.1</div></td></tr><tr><td><div>192.168.56.1</div></td></tr></table></div></td></tr><tr><td style="font-weight:bold;vertical-align:top;">web2py_version</td><td style="vertical-align:top;">:</td><td><div>2.14.6-stable+timestamp.2016.05.10.00.21.47</div></td></tr></table></div></td></tr><tr><td style="font-weight:bold;vertical-align:top;">is_https</td><td style="vertical-align:top;">:</td><td><div>False</div></td></tr><tr><td style="font-weight:bold;vertical-align:top;">is_local</td><td style="vertical-align:top;">:</td><td><div>True</div></td></tr><tr><td style="font-weight:bold;vertical-align:top;">is_restful</td><td style="vertical-align:top;">:</td><td><div>False</div></td></tr><tr><td style="font-weight:bold;vertical-align:top;">is_scheduler</td><td style="vertical-align:top;">:</td><td><div>False</div></td></tr><tr><td style="font-weight:bold;vertical-align:top;">is_shell</td><td style="vertical-align:top;">:</td><td><div>False</div></td></tr><tr><td style="font-weight:bold;vertical-align:top;">now</td><td style="vertical-align:top;">:</td><td><div>datetime.datetime(2017, 5, 14, 20, 44, 2, 320000)</div></td></tr><tr><td style="font-weight:bold;vertical-align:top;">raw_args</td><td style="vertical-align:top;">:</td><td><div></div></td></tr><tr><td style="font-weight:bold;vertical-align:top;">raw_extension</td><td style="vertical-align:top;">:</td><td><div>None</div></td></tr><tr><td style="font-weight:bold;vertical-align:top;">url</td><td style="vertical-align:top;">:</td><td><div>/Virtualizacion/default/index</div></td></tr><tr><td style="font-weight:bold;vertical-align:top;">utcnow</td><td style="vertical-align:top;">:</td><td><div>datetime.datetime(2017, 5, 15, 0, 44, 2, 320000)</div></td></tr><tr><td style="font-weight:bold;vertical-align:top;">wsgi</td><td style="vertical-align:top;">:</td><td><div>&lt;gluon.main.LazyWSGI object at 0x0A841590&gt;</div></td></tr></table></div>'
tRp69
sS'frames'
p70
(lp71
(dp72
S'file'
p73
S'C:\\Users\\user\\Documents\\universidad\\desarrollo de software\\web2py\\gluon\\restricted.py'
p74
sS'dump'
p75
(dp76
S'code'
p77
S"'# -*- coding: utf-8 -*-\\n### required - do no del...dict()\\n\\n\\n\\nresponse._vars=response._caller(index)\\n'"
p78
sS'layer'
p79
S"r'C:\\Users\\user\\Documents\\universidad\\desarrollo d...pplications\\Virtualizacion\\controllers/default.py'"
p80
sS'global compile2'
p81
S'<function compile2>'
p82
sS'ccode'
p83
S'undefined'
p84
ssS'lnum'
p85
I226
sS'lines'
p86
(dp87
I224
S'            ccode = code'
p88
sI225
S'        else:'
p89
sI226
S'            ccode = compile2(code, layer)'
p90
sI227
S'        exec ccode in environment'
p91
sI228
S'    except HTTP:'
p92
sI229
S'        raise'
p93
sI230
S'    except RestrictedError:'
p94
sI221
S"    environment['__name__'] = '__restricted__'"
p95
sI222
S'    try:'
p96
sI223
S'        if isinstance(code, types.CodeType):'
p97
ssS'call'
p98
S"(code='# -*- coding: utf-8 -*-\\n### required - do no del...dict()\\n\\n\\n\\nresponse._vars=response._caller(index)\\n', environment={'A': <class 'gluon.html.A'>, 'ANY_OF': <class 'gluon.validators.ANY_OF'>, 'ASSIGNJS': <function ASSIGNJS>, 'AppConfig': <function AppConfig>, 'Auth': <class 'gluon.tools.Auth'>, 'B': <class 'gluon.html.B'>, 'BEAUTIFY': <class 'gluon.html.BEAUTIFY'>, 'BODY': <class 'gluon.html.BODY'>, 'BR': <class 'gluon.html.BR'>, 'BUTTON': <class 'gluon.html.BUTTON'>, ...}, layer=r'C:\\Users\\user\\Documents\\universidad\\desarrollo d...pplications\\Virtualizacion\\controllers/default.py')"
p99
sS'func'
p100
S'restricted'
p101
sa(dp102
g73
S'C:\\Users\\user\\Documents\\universidad\\desarrollo de software\\web2py\\gluon\\restricted.py'
p103
sg75
(dp104
S'builtincompile'
p105
S'<built-in function compile>'
p106
sS'code'
p107
S"'# -*- coding: utf-8 -*-\\n### required - do no del...dict()\\n\\n\\n\\nresponse._vars=response._caller(index)\\n'"
p108
sS'code.rstrip'
p109
S'<built-in method rstrip of str object>'
p110
sS').replace'
p111
g84
sS'layer'
p112
S"r'C:\\Users\\user\\Documents\\universidad\\desarrollo d...pplications\\Virtualizacion\\controllers/default.py'"
p113
ssg85
I209
sg86
(dp114
I204
S'def compile2(code, layer):'
p115
sI205
S'    """'
p116
sI206
S"    The ``+'\\\\n'`` is necessary else compile fails when code ends in a comment."
p117
sI207
S'    """'
p118
sI208
S''
sI209
S"    return compile(code.rstrip().replace('\\r\\n', '\\n') + '\\n', layer, 'exec')"
p119
sI210
S''
sI211
S''
sI212
S"def restricted(code, environment=None, layer='Unknown'):"
p120
sI213
S'    """'
p121
ssg98
S"(code='# -*- coding: utf-8 -*-\\n### required - do no del...dict()\\n\\n\\n\\nresponse._vars=response._caller(index)\\n', layer=r'C:\\Users\\user\\Documents\\universidad\\desarrollo d...pplications\\Virtualizacion\\controllers/default.py')"
p122
sg100
S'compile2'
p123
sasS'pyver'
p124
S'Python 2.7.9: C:\\Users\\user\\Documents\\universidad\\desarrollo de software\\web2py\\web2py.exe (prefix: C:\\Python27)'
p125
sS'session'
p126
g68
(S's\x9c\x00\x00\x00<div><table><tr><td style="font-weight:bold;vertical-align:top;">flash</td><td style="vertical-align:top;">:</td><td><div>None</div></td></tr></table></div>'
tRp127
sS'etype'
p128
S"<type 'exceptions.SyntaxError'>"
p129
sS'date'
p130
S'Sun May 14 20:44:02 2017'
p131
sS'response'
p132
g68
(S'sp#\x00\x00<div><table><tr><td style="font-weight:bold;vertical-align:top;">body</td><td style="vertical-align:top;">:</td><td><div>&lt;cStringIO.StringO object at 0x0AC44180&gt;</div></td></tr><tr><td style="font-weight:bold;vertical-align:top;">cookies</td><td style="vertical-align:top;">:</td><td><div><table><tr><td style="font-weight:bold;vertical-align:top;">session_id_virtualizacion</td><td style="vertical-align:top;">:</td><td><div>127.0.0.1-8fc45431-d9b0-47d5-be52-1f26ea5dae7f<table><tr><td style="font-weight:bold;vertical-align:top;">comment</td><td style="vertical-align:top;">:</td><td><div></div></td></tr><tr><td style="font-weight:bold;vertical-align:top;">domain</td><td style="vertical-align:top;">:</td><td><div></div></td></tr><tr><td style="font-weight:bold;vertical-align:top;">expires</td><td style="vertical-align:top;">:</td><td><div></div></td></tr><tr><td style="font-weight:bold;vertical-align:top;">httponly</td><td style="vertical-align:top;">:</td><td><div></div></td></tr><tr><td style="font-weight:bold;vertical-align:top;">max-age</td><td style="vertical-align:top;">:</td><td><div></div></td></tr><tr><td style="font-weight:bold;vertical-align:top;">path</td><td style="vertical-align:top;">:</td><td><div>/</div></td></tr><tr><td style="font-weight:bold;vertical-align:top;">secure</td><td style="vertical-align:top;">:</td><td><div></div></td></tr><tr><td style="font-weight:bold;vertical-align:top;">version</td><td style="vertical-align:top;">:</td><td><div></div></td></tr></table></div></td></tr></table></div></td></tr><tr><td style="font-weight:bold;vertical-align:top;">delimiters</td><td style="vertical-align:top;">:</td><td><div><table><tr><td><div>{{</div></td></tr><tr><td><div>}}</div></td></tr></table></div></td></tr><tr><td style="font-weight:bold;vertical-align:top;">files</td><td style="vertical-align:top;">:</td><td><div><table></table></div></td></tr><tr><td style="font-weight:bold;vertical-align:top;">flash</td><td style="vertical-align:top;">:</td><td><div></div></td></tr><tr><td style="font-weight:bold;vertical-align:top;">form_label_separator</td><td style="vertical-align:top;">:</td><td><div></div></td></tr><tr><td style="font-weight:bold;vertical-align:top;">formstyle</td><td style="vertical-align:top;">:</td><td><div>bootstrap3_inline</div></td></tr><tr><td style="font-weight:bold;vertical-align:top;">generic_patterns</td><td style="vertical-align:top;">:</td><td><div><table><tr><td><div>*</div></td></tr></table></div></td></tr><tr><td style="font-weight:bold;vertical-align:top;">headers</td><td style="vertical-align:top;">:</td><td><div><table><tr><td style="font-weight:bold;vertical-align:top;">X-Powered-By</td><td style="vertical-align:top;">:</td><td><div>web2py</div></td></tr></table></div></td></tr><tr><td style="font-weight:bold;vertical-align:top;">menu</td><td style="vertical-align:top;">:</td><td><div><table><tr><td><div><table><tr><td><div>\xc3\x8dndice</div></td></tr><tr><td><div>True</div></td></tr><tr><td><div>/Virtualizacion/default/index</div></td></tr><tr><td><div><table></table></div></td></tr></table></div></td></tr><tr><td><div><table><tr><td><div>User</div></td></tr><tr><td><div>False</div></td></tr><tr><td><div>/Virtualizacion/default/user_manage</div></td></tr><tr><td><div><table></table></div></td></tr></table></div></td></tr><tr><td><div><table><tr><td><div>Profesor</div></td></tr><tr><td><div>False</div></td></tr><tr><td><div>/Virtualizacion/default/profesor</div></td></tr><tr><td><div><table></table></div></td></tr></table></div></td></tr><tr><td><div><table><tr><td><div>Disenador</div></td></tr><tr><td><div>False</div></td></tr><tr><td><div>/Virtualizacion/default/disenador</div></td></tr><tr><td><div><table></table></div></td></tr></table></div></td></tr><tr><td><div><table><tr><td><div>Course</div></td></tr><tr><td><div>False</div></td></tr><tr><td><div>/Virtualizacion/default/course_manage</div></td></tr><tr><td><div><table></table></div></td></tr></table></div></td></tr><tr><td><div><table><tr><td><div>Recurso</div></td></tr><tr><td><div>False</div></td></tr><tr><td><div>/Virtualizacion/default/recurso</div></td></tr><tr><td><div><table></table></div></td></tr></table></div></td></tr><tr><td><div><table><tr><td><div>Program</div></td></tr><tr><td><div>False</div></td></tr><tr><td><div>/Virtualizacion/default/program_manage</div></td></tr><tr><td><div><table></table></div></td></tr></table></div></td></tr><tr><td><div><table><tr><td><div>Has Course</div></td></tr><tr><td><div>False</div></td></tr><tr><td><div>/Virtualizacion/default/has_course_manage</div></td></tr><tr><td><div><table></table></div></td></tr></table></div></td></tr><tr><td><div><table><tr><td><div>Register User</div></td></tr><tr><td><div>False</div></td></tr><tr><td><div>/Virtualizacion/default/register_user</div></td></tr><tr><td><div><table></table></div></td></tr></table></div></td></tr><tr><td><div><table><tr><td><div>Dashboard</div></td></tr><tr><td><div>False</div></td></tr><tr><td><div>/Virtualizacion/default/dashboard</div></td></tr><tr><td><div><table></table></div></td></tr></table></div></td></tr></table></div></td></tr><tr><td style="font-weight:bold;vertical-align:top;">meta</td><td style="vertical-align:top;">:</td><td><div><table><tr><td style="font-weight:bold;vertical-align:top;">author</td><td style="vertical-align:top;">:</td><td><div>Aminosoft &lt;aminosoft@gmail.com&gt;</div></td></tr><tr><td style="font-weight:bold;vertical-align:top;">description</td><td style="vertical-align:top;">:</td><td><div></div></td></tr><tr><td style="font-weight:bold;vertical-align:top;">keywords</td><td style="vertical-align:top;">:</td><td><div></div></td></tr></table></div></td></tr><tr><td style="font-weight:bold;vertical-align:top;">models_to_run</td><td style="vertical-align:top;">:</td><td><div><table><tr><td><div>^\\w+\\.py$</div></td></tr><tr><td><div>^default/\\w+\\.py$</div></td></tr><tr><td><div>^default/index/\\w+\\.py$</div></td></tr></table></div></td></tr><tr><td style="font-weight:bold;vertical-align:top;">postprocessing</td><td style="vertical-align:top;">:</td><td><div><table></table></div></td></tr><tr><td style="font-weight:bold;vertical-align:top;">session_client</td><td style="vertical-align:top;">:</td><td><div>127.0.0.1</div></td></tr><tr><td style="font-weight:bold;vertical-align:top;">session_cookie_compression_level</td><td style="vertical-align:top;">:</td><td><div>None</div></td></tr><tr><td style="font-weight:bold;vertical-align:top;">session_cookie_expires</td><td style="vertical-align:top;">:</td><td><div>None</div></td></tr><tr><td style="font-weight:bold;vertical-align:top;">session_data_name</td><td style="vertical-align:top;">:</td><td><div>session_data_virtualizacion</div></td></tr><tr><td style="font-weight:bold;vertical-align:top;">session_file</td><td style="vertical-align:top;">:</td><td><div>&lt;open file &#x27;C:\\\\Users\\\\user\\\\Documents\\\\universidad\\\\desarrollo de software\\\\web2py\\\\applications\\\\Virtualizacion\\\\sessions\\\\00e\\\\092\\\\127.0.0.1-8fc45431-d9b0-47d5-be52-1f26ea5dae7f&#x27;, mode &#x27;rb+&#x27; at 0x07BD8A70&gt;</div></td></tr><tr><td style="font-weight:bold;vertical-align:top;">session_filename</td><td style="vertical-align:top;">:</td><td><div>C:\\Users\\user\\Documents\\universidad\\desarrollo de software\\web2py\\applications\\Virtualizacion\\sessions\\127.0.0.1-8fc45431-d9b0-47d5-be52-1f26ea5dae7f</div></td></tr><tr><td style="font-weight:bold;vertical-align:top;">session_hash</td><td style="vertical-align:top;">:</td><td><div>6d3cb5ac89c80a5d8fad9f2f31e3de11</div></td></tr><tr><td style="font-weight:bold;vertical-align:top;">session_id</td><td style="vertical-align:top;">:</td><td><div>127.0.0.1-8fc45431-d9b0-47d5-be52-1f26ea5dae7f</div></td></tr><tr><td style="font-weight:bold;vertical-align:top;">session_id_name</td><td style="vertical-align:top;">:</td><td><div>session_id_virtualizacion</div></td></tr><tr><td style="font-weight:bold;vertical-align:top;">session_locked</td><td style="vertical-align:top;">:</td><td><div>True</div></td></tr><tr><td style="font-weight:bold;vertical-align:top;">session_masterapp</td><td style="vertical-align:top;">:</td><td><div>Virtualizacion</div></td></tr><tr><td style="font-weight:bold;vertical-align:top;">session_new</td><td style="vertical-align:top;">:</td><td><div>False</div></td></tr><tr><td style="font-weight:bold;vertical-align:top;">session_storage_type</td><td style="vertical-align:top;">:</td><td><div>file</div></td></tr><tr><td style="font-weight:bold;vertical-align:top;">status</td><td style="vertical-align:top;">:</td><td><div>200</div></td></tr><tr><td style="font-weight:bold;vertical-align:top;">subtitle</td><td style="vertical-align:top;">:</td><td><div>powered by web2py</div></td></tr><tr><td style="font-weight:bold;vertical-align:top;">title</td><td style="vertical-align:top;">:</td><td><div>Gestor de virtualizacion</div></td></tr><tr><td style="font-weight:bold;vertical-align:top;">view</td><td style="vertical-align:top;">:</td><td><div>default/index.html</div></td></tr></table></div>'
tRp133
sS'locals'
p134
(dp135
g4
S"r'C:\\Users\\user\\Documents\\universidad\\desarrollo d...pplications\\Virtualizacion\\controllers/default.py'"
p136
sg6
S"'# -*- coding: utf-8 -*-\\n### required - do no del...dict()\\n\\n\\n\\nresponse._vars=response._caller(index)\\n'"
p137
sssS'traceback'
p138
S'Traceback (most recent call last):\n  File "C:\\Users\\user\\Documents\\universidad\\desarrollo de software\\web2py\\gluon\\restricted.py", line 226, in restricted\n    ccode = compile2(code, layer)\n  File "C:\\Users\\user\\Documents\\universidad\\desarrollo de software\\web2py\\gluon\\restricted.py", line 209, in compile2\n    return compile(code.rstrip().replace(\'\\r\\n\', \'\\n\') + \'\\n\', layer, \'exec\')\n  File "C:\\Users\\user\\Documents\\universidad\\desarrollo de software\\web2py\\applications\\Virtualizacion\\controllers/default.py", line 8\n    print(form=auth())\n              ^\nSyntaxError: invalid syntax\n'
p139
s.