(dp1
S'output'
p2
S"<type 'exceptions.AttributeError'> 'Table' object has no attribute 'db'"
p3
sS'layer'
p4
S'C:\\Users\\user\\Documents\\universidad\\desarrollo de software\\web2py\\applications\\Virtualizacion\\controllers/default.py'
p5
sS'code'
p6
S'# -*- coding: utf-8 -*-\n### required - do no delete\n# Some imports\nfrom time import gmtime, strftime\nimport json\n\ndef user(): return dict(form=auth())\ndef download(): return response.download(request,db)\ndef call(): return service()\n### end requires\n@auth.requires_login()\ndef index():\n    # id = auth.id  -> res = db(db.t_usuario.id == id ).select() -> res.f_type\n    #if es instruccional renderizar vista de instruccional ...\n    #return \n\n    res = db(db.t_program).select()\n    n = 0\n    res_n = 0\n    for row in res:\n        res_n=res_n+1\n    notificacion = db(db.t_notification.f_usuario_b == auth.user.id).select()\n    usuarios = []\n    for row in notificacion:\n        usuarios.append( db(db.t_usuario.id == row.f_usuario_a).select(db.t_usuario.f_first_name, distinct=False) )\n        n=n+1\n\n    usuarios_sistema = db(db.t_usuario).select()\n\n    return dict(query=res, length_query = res_n, notification = notificacion, length_notification = n, notification_emited = usuarios, users = usuarios_sistema, length_users = len(usuarios_sistema))\n\ndef error():\n    return dict()\n\n\n@auth.requires_login()\ndef create_notif():\n    user_emisor, user_receptor, titulo, contenido = auth.user.id, request.post_vars[\'user_receptor\'], request.post_vars[\'titulo\'], request.post_vars[\'contenido\']\n    select = db(db.t_usuario.f_first_name == user_receptor).select()\n    id_receptor = 0\n    for row in select:\n        id_receptor = row.id\n    db.t_notification.insert(\n        f_usuario_a = user_emisor,\n        f_usuario_b = id_receptor,\n        f_tittle = titulo,\n        f_viewed = False,\n        f_content = contenido\n        )    \n    return index()\n\n@auth.requires_login()\ndef insert():\n    user_name, name, last_name, user_type, email, password = request.post_vars[\'user_name\'],request.post_vars[\'name\'], request.post_vars[\'last_name\'], request.post_vars[\'user_type\'], request.post_vars[\'email\'], request.post_vars[\'password\']\n    db.t_usuario.insert(\n            f_username=user_name,\n            f_first_name=name,\n            f_last_name=last_name,           \n            f_email=email,\n            f_password=db.auth_user.password.requires[0](password)[0],\n            f_type_user=user_type,\n            f_notification="0"\n        )\n    db.auth_user.insert(\n            first_name=name,\n            last_name=last_name,           \n            email=email,\n            password=db.auth_user.password.requires[0](password)[0],           \n        )\n    return dict() \n\n@auth.requires_login()\ndef registrar_usuario():\n    return dict()\n\n@auth.requires_login()\ndef user_manage():\n    return dict()\n\n@auth.requires_login()\ndef course_manage():\n    form = SQLFORM.smartgrid(db.t_course,onupdate=auth.archive)\n    return locals()\n\n@auth.requires_login()\ndef has_course_manage():\n    form = SQLFORM.smartgrid(db.t_has_course,onupdate=auth.archive)\n    return locals()\n\n@auth.requires_login()\ndef register_user():\n    return dict()\n\n@auth.requires_login()\ndef dashboard():\n    return dict()\n\n@auth.requires_login()\ndef validar_form_recurso(form):\n    c = form.vars.f_name\n    t = form.vars.f_type\n    f = form.vars.f_format\n    d = form.vars.f_description\n    c = c.strip()\n    t = t.strip()\n    f = f.strip()\n    d = d.strip()\n    if c=="" or t=="" or f=="" or d=="":\n        form.errors.f_name = \'todos los campos deben estar llenos\'\n        form.errors.f_type = \'todos los campos deben estar llenos\'\n        form.errors.f_format = \'todos los campos deben estar llenos\'\n        form.errors.f_description = \'todos los campos deben estar llenos\'\n\n@auth.requires_login()\ndef validar_form_archivo(form):\n    c = form.vars.f_name\n    d = form.vars.f_description\n    a = form.vars.f_file\n    c = c.strip()\n    d = d.strip()\n    a = a.strip()\n    if c=="" or d=="" or a=="":\n        form.errors.f_name = \'todos los campos deben estar llenos\'\n        form.errors.f_description = \'todos los campos deben estar llenos\'\n        #form.vars.f_file = \'todos los campos deben estar llenos\'\n\n@auth.requires_login()\ndef recurso():\n    #form =db().select(db.t_resource.f_name, db.t_resource.f_code_course)\n    form = SQLFORM(\n        db.t_resource,\n        fields=[\'f_name\',\'f_code_course\',\'f_responsable\',\'f_type\',\'f_format\',\'f_description\',\'f_is_planilla\'],\n        deletable=True)\n    if form.process(onvalidation=validar_form_recurso).accepted:\n        response.flash = \'Recurso aceptado\'\n    elif form.errors:\n        response.flash = \'Error de formulario\'\n    return dict(form=form)\n\n@auth.requires_login()\ndef display_planillas():\n    form = SQLFORM.smartgrid(db.t_resource, constraints = dict(t_resource = db.t_resource.f_is_planilla == True),\n        onupdate=auth.archive,\n        deletable=False,\n        editable=False,\n        searchable=False,\n        create=False,\n        csv=False,\n        showbuttontext=False)\n    return locals()\n\n\n\n@auth.requires_login()\ndef display_resources():\n    query = db.t_resource.f_is_planilla == False\n    form = SQLFORM.smartgrid(\n        db.t_resource,\n        constraints = dict(t_resource = query),\n        onupdate=auth.archive,\n        deletable=False,\n        editable=False,\n        searchable=False,\n        create=False,\n        csv=False,\n        showbuttontext=False\n        )\n    return locals()\n\n\n@auth.requires_login()\ndef verificar_planillas():\n    id_resource = request.post_vars[\'id_resource\']\n    row = db(db.t_resource.id == id_resource).select().first()\n    row.update_record(f_is_verificado=True)\n    redirect(URL(\'display_planillas\'))  \n    #return locals()\n\n@auth.requires_login()\ndef verificar_resources():\n    id_resource = request.post_vars[\'id_resource\']\n    row = db(db.t_resource.id == id_resource).select().first()\n    row.update_record(f_is_verificado=True)\n    redirect(URL(\'display_resources\'))  \n    #return locals()\n\n\ndef display_file_form():\n    record = db.t_file(request.args(0))\n    form = SQLFORM(db.t_file, record, deletable=True,\n                  upload=URL(\'download\'))\n\n    if form.process(onvalidation=validar_form_archivo).accepted:\n       response.flash = \'form accepted\'\n    elif form.errors:\n       response.flash = \'form has errors\'\n    return dict(form=form)\n\ndef display_files():\n    form = SQLFORM.smartgrid(db.t_file,onupdate=auth.archive)\n    return locals()\n    \n@auth.requires_login()\ndef program_manage():\n    return dict()\n\n@auth.requires_login()\ndef program_creator():\n    program_type = request.post_vars[\'program_type\']\n    program_name = ""\n\n    if (program_type == "carreraLarga"):\n        program_name = "Carrera Larga"\n    elif (program_type == "carreraCorta"):\n        program_name = "Carrera Corta"\n    elif (program_type == "postgrado"):\n        program_name = "Postgrado"\n    elif (program_type == "diplomado"):\n        program_name = "Diplomado"\n    elif (program_type == "curso"):\n        program_name = "Curso"\n    elif (program_type == "programa"):\n        program_name = "Programa"\n\n    data = {\'program_type\': program_type, \'program_name\': program_name}\n    return data\n\n@auth.requires_login()\ndef program_creator_courses():\n    program_type = request.get_vars[\'type\']\n    duration = int(request.post_vars[\'years\'])\n    modality = request.post_vars[\'modality\']\n    name = request.post_vars[\'name\']\n    code = request.post_vars[\'code\']\n\n   # nulo = db(db.t_course.f_code == code).select()\n   # if nulo:\n\n   # print(nulo)\n   # print("HOLA")\n\n    # Getting size\n    size = 0\n    if (modality==\'trimestral\'):\n        size = 3\n    elif (modality==\'semestral\'):\n        size = 6\n    elif (modality==\'anual\'):\n        size = 12\n\n    # Create Database Entries\n    if (program_type in (\'carreraLarga\', \'carreraCorta\', \'postgrado\')):\n        # Nivel de anidacion I\n        level_one_id = db.t_program.insert(\n            f_name = name,\n            f_modality = modality,\n            f_code = code,\n            f_duration = duration,\n            f_level = 0\n        )\n\n        complete_duration = int(duration)*12/size\n\n        programsIDs = list()\n\n        for i in range(0, complete_duration):\n            level_two_id = db.t_program.insert(\n                f_name = name + \' - \' + modality + \' - \' + str(i),\n                f_modality = None,\n                f_code = code,\n                f_duration = size,\n                f_level = 1\n            )\n\n            db.t_has_program.insert(\n                f_program_a = level_one_id,\n                f_program_b = level_two_id\n            )\n\n            programsIDs.append(level_two_id)\n    elif (program_type in (\'diplomado\', \'curso\') ):\n        complete_duration = int(duration)*12/size\n\n        # Nivel de anidacion 0 \n        level_one_id = db.t_program.insert(\n            f_name = name,\n            f_modality = modality,\n            f_code = code,\n            f_duration = duration\n        )\n        programsIDs.append(level_one_id)\n    elif (program_type == \'programa\'):\n        # Nivel de anidacion variable\n        complete_duration = int(duration)*12/size\n        pass\n\n    return {\'duration\': complete_duration, \'size\': size, \'modality\' : modality, \'programs\': programsIDs}\n\n@auth.requires_login()\ndef save_course():\n    program = request.post_vars[\'program\']\n    course_code = request.post_vars[\'course_code\']\n    course_name = request.post_vars[\'course_name\']\n    message = \'\'\n    status = False\n    \n    # DB Inserts\n    validate = False\n    sanity_check_course = db(db.t_course.f_code == course_code).select()\n\n    for row in sanity_check_course:\n        validate = True\n\n    if ( not validate ):\n        print("This case is triggered")\n        course = db.t_course.insert(\n            f_code = course_code,\n            f_name = course_name,\n        )\n    else:\n        course = sanity_check_course[0]\n\n    has_course = db.t_has_course.insert(\n        f_program_has = program,\n        f_course_has = course\n    );\n\n    status = has_course != None and course != None\n\n    data = {\'course\': course, \'has_course\': has_course, \'course_name\': course_name, \'status\': status}\n    return data\n\n\n@auth.requires_login()\ndef project_manage():\n    return dict()\n\n\n@auth.requires_login()\ndef project_asign_responsibles():\n    codigo = request.get_vars[\'codigo\']\n    data = list()\n    courses = db(db.t_has_course.f_program_has.belongs(db.t_program.f_code == codigo)).select()\n    for course in courses:\n        data.append(db(db.t_course.id == course.f_course_has).select())\n    return dict(courses_ = data)\n\n\n@auth.requires_login()\ndef get_user_names():\n    usernames = db(db.auth_user).select(db.auth_user.first_name, db.auth_user.last_name)\n    names = \'\';\n    for name in usernames:\n        names = names + str(name[\'auth_user.first_name\']) + \' \' + str(name[\'auth_user.last_name\']) + \'|\'\n    data = {\'usernames\': names}\n    return data\n\n@auth.requires_login()\ndef profesor():\n    return dict()\n\n@auth.requires_login()\ndef disenador():\n    return dict()\n\n@auth.requires_login()\ndef verificaciones():\n    #form =db().select(db.t_resource.f_name, db.t_resource.f_code_course)\n    query = db.t_resource.f_is_verificado==True\n\n    # form = SQLFORM.smartgrid(\n    #     db.t_resource,\n    #     constraints = dict(t_resource = query),\n    #     onupdate=auth.archive,\n    #     deletable=False,\n    #     editable=False,\n    #     searchable=False,\n    #     create=False,\n    #     csv=False,\n    #     showbuttontext=False\n    #     )\n\n    form = SQLFORM.factory(Field(\'city\', requires=IS_IN_DB(db.t_resource, \'f_resource\', \'%(name)s\')))\n\n    return dict(form=form)\n\nresponse._vars=response._caller(verificaciones)\n'
p7
sS'snapshot'
p8
(dp9
S'exception'
p10
(dp11
S'__hash__'
p12
S"<method-wrapper '__hash__' of exceptions.AttributeError object>"
p13
sS'__setattr__'
p14
S"<method-wrapper '__setattr__' of exceptions.AttributeError object>"
p15
sS'__reduce_ex__'
p16
S'<built-in method __reduce_ex__ of exceptions.AttributeError object>'
p17
sS'__getslice__'
p18
S"<method-wrapper '__getslice__' of exceptions.AttributeError object>"
p19
sS'__getitem__'
p20
S"<method-wrapper '__getitem__' of exceptions.AttributeError object>"
p21
sS'__setstate__'
p22
S'<built-in method __setstate__ of exceptions.AttributeError object>'
p23
sS'__reduce__'
p24
S'<built-in method __reduce__ of exceptions.AttributeError object>'
p25
sS'__str__'
p26
S"<method-wrapper '__str__' of exceptions.AttributeError object>"
p27
sS'__format__'
p28
S'<built-in method __format__ of exceptions.AttributeError object>'
p29
sS'__getattribute__'
p30
S"<method-wrapper '__getattribute__' of exceptions.AttributeError object>"
p31
sS'__class__'
p32
S"<type 'exceptions.AttributeError'>"
p33
sS'__unicode__'
p34
S'<built-in method __unicode__ of exceptions.AttributeError object>'
p35
sS'__delattr__'
p36
S"<method-wrapper '__delattr__' of exceptions.AttributeError object>"
p37
sS'__subclasshook__'
p38
S'<built-in method __subclasshook__ of type object>'
p39
sS'__repr__'
p40
S"<method-wrapper '__repr__' of exceptions.AttributeError object>"
p41
sS'args'
p42
S'("\'Table\' object has no attribute \'db\'",)'
p43
sS'__dict__'
p44
S'{}'
p45
sS'__sizeof__'
p46
S'<built-in method __sizeof__ of exceptions.AttributeError object>'
p47
sS'__doc__'
p48
S"'Attribute not found.'"
p49
sS'__init__'
p50
S"<method-wrapper '__init__' of exceptions.AttributeError object>"
p51
sS'__new__'
p52
S'<built-in method __new__ of type object>'
p53
ssS'evalue'
p54
S"'Table' object has no attribute 'db'"
p55
sS'request'
p56
cgluon.html
XML_unpickle
p57
(S's\x88g\x00\x00<div><table><tr><td style="font-weight:bold;vertical-align:top;">ajax</td><td style="vertical-align:top;">:</td><td><div>False</div></td></tr><tr><td style="font-weight:bold;vertical-align:top;">application</td><td style="vertical-align:top;">:</td><td><div>Virtualizacion</div></td></tr><tr><td style="font-weight:bold;vertical-align:top;">args</td><td style="vertical-align:top;">:</td><td><div><table></table></div></td></tr><tr><td style="font-weight:bold;vertical-align:top;">cid</td><td style="vertical-align:top;">:</td><td><div>None</div></td></tr><tr><td style="font-weight:bold;vertical-align:top;">client</td><td style="vertical-align:top;">:</td><td><div>127.0.0.1</div></td></tr><tr><td style="font-weight:bold;vertical-align:top;">controller</td><td style="vertical-align:top;">:</td><td><div>default</div></td></tr><tr><td style="font-weight:bold;vertical-align:top;">cookies</td><td style="vertical-align:top;">:</td><td><div><table><tr><td style="font-weight:bold;vertical-align:top;">session_id_admin</td><td style="vertical-align:top;">:</td><td><div>127.0.0.1-45a26ee5-4758-481b-9ddf-81503cae3715<table><tr><td style="font-weight:bold;vertical-align:top;">comment</td><td style="vertical-align:top;">:</td><td><div></div></td></tr><tr><td style="font-weight:bold;vertical-align:top;">domain</td><td style="vertical-align:top;">:</td><td><div></div></td></tr><tr><td style="font-weight:bold;vertical-align:top;">expires</td><td style="vertical-align:top;">:</td><td><div></div></td></tr><tr><td style="font-weight:bold;vertical-align:top;">httponly</td><td style="vertical-align:top;">:</td><td><div></div></td></tr><tr><td style="font-weight:bold;vertical-align:top;">max-age</td><td style="vertical-align:top;">:</td><td><div></div></td></tr><tr><td style="font-weight:bold;vertical-align:top;">path</td><td style="vertical-align:top;">:</td><td><div></div></td></tr><tr><td style="font-weight:bold;vertical-align:top;">secure</td><td style="vertical-align:top;">:</td><td><div></div></td></tr><tr><td style="font-weight:bold;vertical-align:top;">version</td><td style="vertical-align:top;">:</td><td><div></div></td></tr></table></div></td></tr><tr><td style="font-weight:bold;vertical-align:top;">session_id_virtualizacion</td><td style="vertical-align:top;">:</td><td><div>127.0.0.1-7c35ab5f-defc-4ffc-809e-b20df98d2fd6<table><tr><td style="font-weight:bold;vertical-align:top;">comment</td><td style="vertical-align:top;">:</td><td><div></div></td></tr><tr><td style="font-weight:bold;vertical-align:top;">domain</td><td style="vertical-align:top;">:</td><td><div></div></td></tr><tr><td style="font-weight:bold;vertical-align:top;">expires</td><td style="vertical-align:top;">:</td><td><div></div></td></tr><tr><td style="font-weight:bold;vertical-align:top;">httponly</td><td style="vertical-align:top;">:</td><td><div></div></td></tr><tr><td style="font-weight:bold;vertical-align:top;">max-age</td><td style="vertical-align:top;">:</td><td><div></div></td></tr><tr><td style="font-weight:bold;vertical-align:top;">path</td><td style="vertical-align:top;">:</td><td><div></div></td></tr><tr><td style="font-weight:bold;vertical-align:top;">secure</td><td style="vertical-align:top;">:</td><td><div></div></td></tr><tr><td style="font-weight:bold;vertical-align:top;">version</td><td style="vertical-align:top;">:</td><td><div></div></td></tr></table></div></td></tr><tr><td style="font-weight:bold;vertical-align:top;">session_id_virtualizacion_1</td><td style="vertical-align:top;">:</td><td><div>127.0.0.1-88fb9f5e-8efd-4417-8158-80e56b46363c<table><tr><td style="font-weight:bold;vertical-align:top;">comment</td><td style="vertical-align:top;">:</td><td><div></div></td></tr><tr><td style="font-weight:bold;vertical-align:top;">domain</td><td style="vertical-align:top;">:</td><td><div></div></td></tr><tr><td style="font-weight:bold;vertical-align:top;">expires</td><td style="vertical-align:top;">:</td><td><div></div></td></tr><tr><td style="font-weight:bold;vertical-align:top;">httponly</td><td style="vertical-align:top;">:</td><td><div></div></td></tr><tr><td style="font-weight:bold;vertical-align:top;">max-age</td><td style="vertical-align:top;">:</td><td><div></div></td></tr><tr><td style="font-weight:bold;vertical-align:top;">path</td><td style="vertical-align:top;">:</td><td><div></div></td></tr><tr><td style="font-weight:bold;vertical-align:top;">secure</td><td style="vertical-align:top;">:</td><td><div></div></td></tr><tr><td style="font-weight:bold;vertical-align:top;">version</td><td style="vertical-align:top;">:</td><td><div></div></td></tr></table></div></td></tr><tr><td style="font-weight:bold;vertical-align:top;">session_id_welcome</td><td style="vertical-align:top;">:</td><td><div>127.0.0.1-70492ff8-2d7e-46db-ae00-f7ca1060c283<table><tr><td style="font-weight:bold;vertical-align:top;">comment</td><td style="vertical-align:top;">:</td><td><div></div></td></tr><tr><td style="font-weight:bold;vertical-align:top;">domain</td><td style="vertical-align:top;">:</td><td><div></div></td></tr><tr><td style="font-weight:bold;vertical-align:top;">expires</td><td style="vertical-align:top;">:</td><td><div></div></td></tr><tr><td style="font-weight:bold;vertical-align:top;">httponly</td><td style="vertical-align:top;">:</td><td><div></div></td></tr><tr><td style="font-weight:bold;vertical-align:top;">max-age</td><td style="vertical-align:top;">:</td><td><div></div></td></tr><tr><td style="font-weight:bold;vertical-align:top;">path</td><td style="vertical-align:top;">:</td><td><div></div></td></tr><tr><td style="font-weight:bold;vertical-align:top;">secure</td><td style="vertical-align:top;">:</td><td><div></div></td></tr><tr><td style="font-weight:bold;vertical-align:top;">version</td><td style="vertical-align:top;">:</td><td><div></div></td></tr></table></div></td></tr></table></div></td></tr><tr><td style="font-weight:bold;vertical-align:top;">env</td><td style="vertical-align:top;">:</td><td><div><table><tr><td style="font-weight:bold;vertical-align:top;">HTTP_ACCEPT</td><td style="vertical-align:top;">:</td><td><div>text/html,application/xhtml+xml,application/xml;q=0.9,image/webp,*/*;q=0.8</div></td></tr><tr><td style="font-weight:bold;vertical-align:top;">HTTP_ACCEPT_ENCODING</td><td style="vertical-align:top;">:</td><td><div>gzip, deflate, sdch, br</div></td></tr><tr><td style="font-weight:bold;vertical-align:top;">HTTP_ACCEPT_LANGUAGE</td><td style="vertical-align:top;">:</td><td><div>es,en-US;q=0.8,en;q=0.6</div></td></tr><tr><td style="font-weight:bold;vertical-align:top;">HTTP_CACHE_CONTROL</td><td style="vertical-align:top;">:</td><td><div>max-age=0</div></td></tr><tr><td style="font-weight:bold;vertical-align:top;">HTTP_CONNECTION</td><td style="vertical-align:top;">:</td><td><div>keep-alive</div></td></tr><tr><td style="font-weight:bold;vertical-align:top;">HTTP_COOKIE</td><td style="vertical-align:top;">:</td><td><div>session_id_welcome=127.0.0.1-70492ff8-2d7e-46db-ae00-f7ca1060c283; session_id_virtualizacion_1=127.0.0.1-88fb9f5e-8efd-4417-8158-80e56b46363c; session_id_admin=127.0.0.1-45a26ee5-4758-481b-9ddf-81503cae3715; session_id_virtualizacion=127.0.0.1-7c35ab5f-defc-4ffc-809e-b20df98d2fd6</div></td></tr><tr><td style="font-weight:bold;vertical-align:top;">HTTP_HOST</td><td style="vertical-align:top;">:</td><td><div>127.0.0.1:8000</div></td></tr><tr><td style="font-weight:bold;vertical-align:top;">HTTP_UPGRADE_INSECURE_REQUESTS</td><td style="vertical-align:top;">:</td><td><div>1</div></td></tr><tr><td style="font-weight:bold;vertical-align:top;">HTTP_USER_AGENT</td><td style="vertical-align:top;">:</td><td><div>Mozilla/5.0 (Windows NT 6.1; WOW64) AppleWebKit/537.36 (KHTML, like Gecko) Chrome/57.0.2987.133 Safari/537.36</div></td></tr><tr><td style="font-weight:bold;vertical-align:top;">PATH_INFO</td><td style="vertical-align:top;">:</td><td><div>/Virtualizacion/default/verificaciones</div></td></tr><tr><td style="font-weight:bold;vertical-align:top;">QUERY_STRING</td><td style="vertical-align:top;">:</td><td><div></div></td></tr><tr><td style="font-weight:bold;vertical-align:top;">REMOTE_ADDR</td><td style="vertical-align:top;">:</td><td><div>127.0.0.1</div></td></tr><tr><td style="font-weight:bold;vertical-align:top;">REMOTE_PORT</td><td style="vertical-align:top;">:</td><td><div>60347</div></td></tr><tr><td style="font-weight:bold;vertical-align:top;">REQUEST_METHOD</td><td style="vertical-align:top;">:</td><td><div>GET</div></td></tr><tr><td style="font-weight:bold;vertical-align:top;">SCRIPT_NAME</td><td style="vertical-align:top;">:</td><td><div></div></td></tr><tr><td style="font-weight:bold;vertical-align:top;">SERVER_NAME</td><td style="vertical-align:top;">:</td><td><div>Uriel</div></td></tr><tr><td style="font-weight:bold;vertical-align:top;">SERVER_PORT</td><td style="vertical-align:top;">:</td><td><div>8000</div></td></tr><tr><td style="font-weight:bold;vertical-align:top;">SERVER_PROTOCOL</td><td style="vertical-align:top;">:</td><td><div>HTTP/1.1</div></td></tr><tr><td style="font-weight:bold;vertical-align:top;">SERVER_SOFTWARE</td><td style="vertical-align:top;">:</td><td><div>Rocket 1.2.6</div></td></tr><tr><td style="font-weight:bold;vertical-align:top;">app_folders</td><td style="vertical-align:top;">:</td><td><div>set([&#x27;C:\\\\Users\\\\user\\\\Documents\\\\universidad\\\\desarrollo de software\\\\web2py\\\\applications\\\\Virtualizacion\\\\&#x27;, &#x27;C:\\\\Users\\\\user\\\\Documents\\\\universidad\\\\desarrollo de software\\\\web2py\\\\applications\\\\Virtualizacion_1\\\\&#x27;, &#x27;C:\\\\Users\\\\user\\\\Documents\\\\universidad\\\\desarrollo de software\\\\web2py\\\\applications\\\\welcome\\\\&#x27;, &#x27;C:\\\\Users\\\\user\\\\Documents\\\\universidad\\\\desarrollo de software\\\\web2py\\\\applications\\\\admin\\\\&#x27;])</div></td></tr><tr><td style="font-weight:bold;vertical-align:top;">applications_parent</td><td style="vertical-align:top;">:</td><td><div>C:\\Users\\user\\Documents\\universidad\\desarrollo de software\\web2py</div></td></tr><tr><td style="font-weight:bold;vertical-align:top;">cmd_args</td><td style="vertical-align:top;">:</td><td><div><table></table></div></td></tr><tr><td style="font-weight:bold;vertical-align:top;">cmd_options</td><td style="vertical-align:top;">:</td><td><div>&lt;Values at 0x314ec88: {&#x27;verbose&#x27;: False, &#x27;ip&#x27;: &#x27;127.0.0.1&#x27;, &#x27;debuglevel&#x27;: 30, &#x27;with_scheduler&#x27;: False, &#x27;shutdown_timeout&#x27;: 5, &#x27;taskbar&#x27;: False, &#x27;with_coverage&#x27;: False, &#x27;pid_filename&#x27;: &#x27;httpserver.pid&#x27;, &#x27;maxthreads&#x27;: None, &#x27;softcron&#x27;: False, &#x27;server_name&#x27;: &#x27;Uriel&#x27;, &#x27;bpython&#x27;: False, &#x27;nogui&#x27;: False, &#x27;port&#x27;: 8000, &#x27;print_errors&#x27;: False, &#x27;extcron&#x27;: False, &#x27;runcron&#x27;: False, &#x27;run_system_tests&#x27;: False, &#x27;test&#x27;: None, &#x27;folder&#x27;: &#x27;C:\\\\Users\\\\user\\\\Documents\\\\universidad\\\\desarrollo de software\\\\web2py&#x27;, &#x27;config&#x27;: &#x27;&#x27;, &#x27;minthreads&#x27;: None, &#x27;shell&#x27;: None, &#x27;run&#x27;: &#x27;&#x27;, &#x27;log_filename&#x27;: &#x27;httpserver.log&#x27;, &#x27;profiler_dir&#x27;: None, &#x27;args&#x27;: [&#x27;&#x27;], &#x27;socket_timeout&#x27;: 5, &#x27;ssl_ca_certificate&#x27;: None, &#x27;scheduler&#x27;: None, &#x27;interfaces&#x27;: None, &#x27;ssl_private_key&#x27;: &#x27;&#x27;, &#x27;gae&#x27;: None, &#x27;password&#x27;: &#x27;******&#x27;, &#x27;request_queue_size&#x27;: 5, &#x27;ssl_certificate&#x27;: &#x27;&#x27;, &#x27;cronjob&#x27;: False, &#x27;numthreads&#x27;: None, &#x27;quiet&#x27;: False, &#x27;import_models&#x27;: False, &#x27;timeout&#x27;: 10, &#x27;plain&#x27;: False, &#x27;nobanner&#x27;: False}&gt;</div></td></tr><tr><td style="font-weight:bold;vertical-align:top;">db_sessions</td><td style="vertical-align:top;">:</td><td><div>set([])</div></td></tr><tr><td style="font-weight:bold;vertical-align:top;">debugging</td><td style="vertical-align:top;">:</td><td><div>False</div></td></tr><tr><td style="font-weight:bold;vertical-align:top;">gluon_parent</td><td style="vertical-align:top;">:</td><td><div>C:\\Users\\user\\Documents\\universidad\\desarrollo de software\\web2py</div></td></tr><tr><td style="font-weight:bold;vertical-align:top;">http_accept</td><td style="vertical-align:top;">:</td><td><div>text/html,application/xhtml+xml,application/xml;q=0.9,image/webp,*/*;q=0.8</div></td></tr><tr><td style="font-weight:bold;vertical-align:top;">http_accept_encoding</td><td style="vertical-align:top;">:</td><td><div>gzip, deflate, sdch, br</div></td></tr><tr><td style="font-weight:bold;vertical-align:top;">http_accept_language</td><td style="vertical-align:top;">:</td><td><div>es,en-US;q=0.8,en;q=0.6</div></td></tr><tr><td style="font-weight:bold;vertical-align:top;">http_cache_control</td><td style="vertical-align:top;">:</td><td><div>max-age=0</div></td></tr><tr><td style="font-weight:bold;vertical-align:top;">http_connection</td><td style="vertical-align:top;">:</td><td><div>keep-alive</div></td></tr><tr><td style="font-weight:bold;vertical-align:top;">http_cookie</td><td style="vertical-align:top;">:</td><td><div>session_id_welcome=127.0.0.1-70492ff8-2d7e-46db-ae00-f7ca1060c283; session_id_virtualizacion_1=127.0.0.1-88fb9f5e-8efd-4417-8158-80e56b46363c; session_id_admin=127.0.0.1-45a26ee5-4758-481b-9ddf-81503cae3715; session_id_virtualizacion=127.0.0.1-7c35ab5f-defc-4ffc-809e-b20df98d2fd6</div></td></tr><tr><td style="font-weight:bold;vertical-align:top;">http_host</td><td style="vertical-align:top;">:</td><td><div>127.0.0.1:8000</div></td></tr><tr><td style="font-weight:bold;vertical-align:top;">http_upgrade_insecure_requests</td><td style="vertical-align:top;">:</td><td><div>1</div></td></tr><tr><td style="font-weight:bold;vertical-align:top;">http_user_agent</td><td style="vertical-align:top;">:</td><td><div>Mozilla/5.0 (Windows NT 6.1; WOW64) AppleWebKit/537.36 (KHTML, like Gecko) Chrome/57.0.2987.133 Safari/537.36</div></td></tr><tr><td style="font-weight:bold;vertical-align:top;">is_jython</td><td style="vertical-align:top;">:</td><td><div>False</div></td></tr><tr><td style="font-weight:bold;vertical-align:top;">is_pypy</td><td style="vertical-align:top;">:</td><td><div>False</div></td></tr><tr><td style="font-weight:bold;vertical-align:top;">is_source</td><td style="vertical-align:top;">:</td><td><div>False</div></td></tr><tr><td style="font-weight:bold;vertical-align:top;">local_hosts</td><td style="vertical-align:top;">:</td><td><div><table><tr><td><div>fe80::548d:31a:7304:a982%31</div></td></tr><tr><td><div>fe80::f43e:57be:b8fd:2bb0%30</div></td></tr><tr><td><div>192.168.75.1</div></td></tr><tr><td><div>2620:9b::190c:282d</div></td></tr><tr><td><div>2001:0:9d38:953c:1cfa:a45:3f57:fefd</div></td></tr><tr><td><div>fe80::1cfa:a45:3f57:fefd%26</div></td></tr><tr><td><div>::ffff:127.0.0.1</div></td></tr><tr><td><div>::1</div></td></tr><tr><td><div>fe80::1146:83f2:5ef1:25a8%27</div></td></tr><tr><td><div>192.168.1.2</div></td></tr><tr><td><div>Uriel</div></td></tr><tr><td><div>127.0.0.1</div></td></tr><tr><td><div>192.168.56.1</div></td></tr></table></div></td></tr><tr><td style="font-weight:bold;vertical-align:top;">path_info</td><td style="vertical-align:top;">:</td><td><div>/Virtualizacion/default/verificaciones</div></td></tr><tr><td style="font-weight:bold;vertical-align:top;">query_string</td><td style="vertical-align:top;">:</td><td><div></div></td></tr><tr><td style="font-weight:bold;vertical-align:top;">remote_addr</td><td style="vertical-align:top;">:</td><td><div>127.0.0.1</div></td></tr><tr><td style="font-weight:bold;vertical-align:top;">remote_port</td><td style="vertical-align:top;">:</td><td><div>60347</div></td></tr><tr><td style="font-weight:bold;vertical-align:top;">request_method</td><td style="vertical-align:top;">:</td><td><div>GET</div></td></tr><tr><td style="font-weight:bold;vertical-align:top;">request_uri</td><td style="vertical-align:top;">:</td><td><div>/Virtualizacion/default/verificaciones</div></td></tr><tr><td style="font-weight:bold;vertical-align:top;">script_name</td><td style="vertical-align:top;">:</td><td><div></div></td></tr><tr><td style="font-weight:bold;vertical-align:top;">server_name</td><td style="vertical-align:top;">:</td><td><div>Uriel</div></td></tr><tr><td style="font-weight:bold;vertical-align:top;">server_port</td><td style="vertical-align:top;">:</td><td><div>8000</div></td></tr><tr><td style="font-weight:bold;vertical-align:top;">server_protocol</td><td style="vertical-align:top;">:</td><td><div>HTTP/1.1</div></td></tr><tr><td style="font-weight:bold;vertical-align:top;">server_software</td><td style="vertical-align:top;">:</td><td><div>Rocket 1.2.6</div></td></tr><tr><td style="font-weight:bold;vertical-align:top;">web2py_path</td><td style="vertical-align:top;">:</td><td><div>C:\\Users\\user\\Documents\\universidad\\desarrollo de software\\web2py</div></td></tr><tr><td style="font-weight:bold;vertical-align:top;">web2py_version</td><td style="vertical-align:top;">:</td><td><div>2.14.6-stable+timestamp.2016.05.10.00.21.47</div></td></tr><tr><td style="font-weight:bold;vertical-align:top;">wsgi.errors</td><td style="vertical-align:top;">:</td><td><div>&lt;open file &#x27;&lt;stderr&gt;&#x27;, mode &#x27;w&#x27; at 0x01E6D0D0&gt;</div></td></tr><tr><td style="font-weight:bold;vertical-align:top;">wsgi.file_wrapper</td><td style="vertical-align:top;">:</td><td><div>&lt;class wsgiref.util.FileWrapper at 0x0381B030&gt;</div></td></tr><tr><td style="font-weight:bold;vertical-align:top;">wsgi.input</td><td style="vertical-align:top;">:</td><td><div>&lt;socket._fileobject object at 0x0980F930&gt;</div></td></tr><tr><td style="font-weight:bold;vertical-align:top;">wsgi.multiprocess</td><td style="vertical-align:top;">:</td><td><div>False</div></td></tr><tr><td style="font-weight:bold;vertical-align:top;">wsgi.multithread</td><td style="vertical-align:top;">:</td><td><div>True</div></td></tr><tr><td style="font-weight:bold;vertical-align:top;">wsgi.run_once</td><td style="vertical-align:top;">:</td><td><div>False</div></td></tr><tr><td style="font-weight:bold;vertical-align:top;">wsgi.url_scheme</td><td style="vertical-align:top;">:</td><td><div>http</div></td></tr><tr><td style="font-weight:bold;vertical-align:top;">wsgi.version</td><td style="vertical-align:top;">:</td><td><div><table><tr><td><div>1</div></td></tr><tr><td><div>0</div></td></tr></table></div></td></tr><tr><td style="font-weight:bold;vertical-align:top;">wsgi_errors</td><td style="vertical-align:top;">:</td><td><div>&lt;open file &#x27;&lt;stderr&gt;&#x27;, mode &#x27;w&#x27; at 0x01E6D0D0&gt;</div></td></tr><tr><td style="font-weight:bold;vertical-align:top;">wsgi_file_wrapper</td><td style="vertical-align:top;">:</td><td><div>&lt;class wsgiref.util.FileWrapper at 0x0381B030&gt;</div></td></tr><tr><td style="font-weight:bold;vertical-align:top;">wsgi_input</td><td style="vertical-align:top;">:</td><td><div>&lt;socket._fileobject object at 0x0980F930&gt;</div></td></tr><tr><td style="font-weight:bold;vertical-align:top;">wsgi_multiprocess</td><td style="vertical-align:top;">:</td><td><div>False</div></td></tr><tr><td style="font-weight:bold;vertical-align:top;">wsgi_multithread</td><td style="vertical-align:top;">:</td><td><div>True</div></td></tr><tr><td style="font-weight:bold;vertical-align:top;">wsgi_run_once</td><td style="vertical-align:top;">:</td><td><div>False</div></td></tr><tr><td style="font-weight:bold;vertical-align:top;">wsgi_url_scheme</td><td style="vertical-align:top;">:</td><td><div>http</div></td></tr><tr><td style="font-weight:bold;vertical-align:top;">wsgi_version</td><td style="vertical-align:top;">:</td><td><div><table><tr><td><div>1</div></td></tr><tr><td><div>0</div></td></tr></table></div></td></tr></table></div></td></tr><tr><td style="font-weight:bold;vertical-align:top;">extension</td><td style="vertical-align:top;">:</td><td><div>html</div></td></tr><tr><td style="font-weight:bold;vertical-align:top;">folder</td><td style="vertical-align:top;">:</td><td><div>C:\\Users\\user\\Documents\\universidad\\desarrollo de software\\web2py\\applications\\Virtualizacion\\</div></td></tr><tr><td style="font-weight:bold;vertical-align:top;">function</td><td style="vertical-align:top;">:</td><td><div>verificaciones</div></td></tr><tr><td style="font-weight:bold;vertical-align:top;">global_settings</td><td style="vertical-align:top;">:</td><td><div><table><tr><td style="font-weight:bold;vertical-align:top;">app_folders</td><td style="vertical-align:top;">:</td><td><div>set([&#x27;C:\\\\Users\\\\user\\\\Documents\\\\universidad\\\\desarrollo de software\\\\web2py\\\\applications\\\\Virtualizacion\\\\&#x27;, &#x27;C:\\\\Users\\\\user\\\\Documents\\\\universidad\\\\desarrollo de software\\\\web2py\\\\applications\\\\Virtualizacion_1\\\\&#x27;, &#x27;C:\\\\Users\\\\user\\\\Documents\\\\universidad\\\\desarrollo de software\\\\web2py\\\\applications\\\\welcome\\\\&#x27;, &#x27;C:\\\\Users\\\\user\\\\Documents\\\\universidad\\\\desarrollo de software\\\\web2py\\\\applications\\\\admin\\\\&#x27;])</div></td></tr><tr><td style="font-weight:bold;vertical-align:top;">applications_parent</td><td style="vertical-align:top;">:</td><td><div>C:\\Users\\user\\Documents\\universidad\\desarrollo de software\\web2py</div></td></tr><tr><td style="font-weight:bold;vertical-align:top;">cmd_args</td><td style="vertical-align:top;">:</td><td><div><table></table></div></td></tr><tr><td style="font-weight:bold;vertical-align:top;">cmd_options</td><td style="vertical-align:top;">:</td><td><div>&lt;Values at 0x314ec88: {&#x27;verbose&#x27;: False, &#x27;ip&#x27;: &#x27;127.0.0.1&#x27;, &#x27;debuglevel&#x27;: 30, &#x27;with_scheduler&#x27;: False, &#x27;shutdown_timeout&#x27;: 5, &#x27;taskbar&#x27;: False, &#x27;with_coverage&#x27;: False, &#x27;pid_filename&#x27;: &#x27;httpserver.pid&#x27;, &#x27;maxthreads&#x27;: None, &#x27;softcron&#x27;: False, &#x27;server_name&#x27;: &#x27;Uriel&#x27;, &#x27;bpython&#x27;: False, &#x27;nogui&#x27;: False, &#x27;port&#x27;: 8000, &#x27;print_errors&#x27;: False, &#x27;extcron&#x27;: False, &#x27;runcron&#x27;: False, &#x27;run_system_tests&#x27;: False, &#x27;test&#x27;: None, &#x27;folder&#x27;: &#x27;C:\\\\Users\\\\user\\\\Documents\\\\universidad\\\\desarrollo de software\\\\web2py&#x27;, &#x27;config&#x27;: &#x27;&#x27;, &#x27;minthreads&#x27;: None, &#x27;shell&#x27;: None, &#x27;run&#x27;: &#x27;&#x27;, &#x27;log_filename&#x27;: &#x27;httpserver.log&#x27;, &#x27;profiler_dir&#x27;: None, &#x27;args&#x27;: [&#x27;&#x27;], &#x27;socket_timeout&#x27;: 5, &#x27;ssl_ca_certificate&#x27;: None, &#x27;scheduler&#x27;: None, &#x27;interfaces&#x27;: None, &#x27;ssl_private_key&#x27;: &#x27;&#x27;, &#x27;gae&#x27;: None, &#x27;password&#x27;: &#x27;******&#x27;, &#x27;request_queue_size&#x27;: 5, &#x27;ssl_certificate&#x27;: &#x27;&#x27;, &#x27;cronjob&#x27;: False, &#x27;numthreads&#x27;: None, &#x27;quiet&#x27;: False, &#x27;import_models&#x27;: False, &#x27;timeout&#x27;: 10, &#x27;plain&#x27;: False, &#x27;nobanner&#x27;: False}&gt;</div></td></tr><tr><td style="font-weight:bold;vertical-align:top;">db_sessions</td><td style="vertical-align:top;">:</td><td><div>set([])</div></td></tr><tr><td style="font-weight:bold;vertical-align:top;">debugging</td><td style="vertical-align:top;">:</td><td><div>False</div></td></tr><tr><td style="font-weight:bold;vertical-align:top;">gluon_parent</td><td style="vertical-align:top;">:</td><td><div>C:\\Users\\user\\Documents\\universidad\\desarrollo de software\\web2py</div></td></tr><tr><td style="font-weight:bold;vertical-align:top;">is_jython</td><td style="vertical-align:top;">:</td><td><div>False</div></td></tr><tr><td style="font-weight:bold;vertical-align:top;">is_pypy</td><td style="vertical-align:top;">:</td><td><div>False</div></td></tr><tr><td style="font-weight:bold;vertical-align:top;">is_source</td><td style="vertical-align:top;">:</td><td><div>False</div></td></tr><tr><td style="font-weight:bold;vertical-align:top;">local_hosts</td><td style="vertical-align:top;">:</td><td><div><table><tr><td><div>fe80::548d:31a:7304:a982%31</div></td></tr><tr><td><div>fe80::f43e:57be:b8fd:2bb0%30</div></td></tr><tr><td><div>192.168.75.1</div></td></tr><tr><td><div>2620:9b::190c:282d</div></td></tr><tr><td><div>2001:0:9d38:953c:1cfa:a45:3f57:fefd</div></td></tr><tr><td><div>fe80::1cfa:a45:3f57:fefd%26</div></td></tr><tr><td><div>::ffff:127.0.0.1</div></td></tr><tr><td><div>::1</div></td></tr><tr><td><div>fe80::1146:83f2:5ef1:25a8%27</div></td></tr><tr><td><div>192.168.1.2</div></td></tr><tr><td><div>Uriel</div></td></tr><tr><td><div>127.0.0.1</div></td></tr><tr><td><div>192.168.56.1</div></td></tr></table></div></td></tr><tr><td style="font-weight:bold;vertical-align:top;">web2py_version</td><td style="vertical-align:top;">:</td><td><div>2.14.6-stable+timestamp.2016.05.10.00.21.47</div></td></tr></table></div></td></tr><tr><td style="font-weight:bold;vertical-align:top;">is_https</td><td style="vertical-align:top;">:</td><td><div>False</div></td></tr><tr><td style="font-weight:bold;vertical-align:top;">is_local</td><td style="vertical-align:top;">:</td><td><div>True</div></td></tr><tr><td style="font-weight:bold;vertical-align:top;">is_restful</td><td style="vertical-align:top;">:</td><td><div>False</div></td></tr><tr><td style="font-weight:bold;vertical-align:top;">is_scheduler</td><td style="vertical-align:top;">:</td><td><div>False</div></td></tr><tr><td style="font-weight:bold;vertical-align:top;">is_shell</td><td style="vertical-align:top;">:</td><td><div>False</div></td></tr><tr><td style="font-weight:bold;vertical-align:top;">now</td><td style="vertical-align:top;">:</td><td><div>datetime.datetime(2017, 4, 27, 17, 40, 34, 560000)</div></td></tr><tr><td style="font-weight:bold;vertical-align:top;">raw_args</td><td style="vertical-align:top;">:</td><td><div></div></td></tr><tr><td style="font-weight:bold;vertical-align:top;">raw_extension</td><td style="vertical-align:top;">:</td><td><div>None</div></td></tr><tr><td style="font-weight:bold;vertical-align:top;">url</td><td style="vertical-align:top;">:</td><td><div>/Virtualizacion/default/verificaciones</div></td></tr><tr><td style="font-weight:bold;vertical-align:top;">utcnow</td><td style="vertical-align:top;">:</td><td><div>datetime.datetime(2017, 4, 27, 21, 40, 34, 560000)</div></td></tr><tr><td style="font-weight:bold;vertical-align:top;">wsgi</td><td style="vertical-align:top;">:</td><td><div>&lt;gluon.main.LazyWSGI object at 0x03A9A950&gt;</div></td></tr></table></div>'
tRp58
sS'frames'
p59
(lp60
(dp61
S'file'
p62
S'C:\\Users\\user\\Documents\\universidad\\desarrollo de software\\web2py\\gluon\\restricted.py'
p63
sS'dump'
p64
(dp65
S'environment'
p66
S"{'A': <class 'gluon.html.A'>, 'ANY_OF': <class 'gluon.validators.ANY_OF'>, 'ASSIGNJS': <function ASSIGNJS>, 'AppConfig': <function AppConfig>, 'Auth': <class 'gluon.tools.Auth'>, 'B': <class 'gluon.html.B'>, 'BEAUTIFY': <class 'gluon.html.BEAUTIFY'>, 'BODY': <class 'gluon.html.BODY'>, 'BR': <class 'gluon.html.BR'>, 'BUTTON': <class 'gluon.html.BUTTON'>, ...}"
p67
sS'ccode'
p68
S'<code object <module> at 03D33BF0, file "C:\\User...s\\Virtualizacion\\controllers/default.py", line 4>'
p69
ssS'lnum'
p70
I227
sS'lines'
p71
(dp72
I224
S'            ccode = code'
p73
sI225
S'        else:'
p74
sI226
S'            ccode = compile2(code, layer)'
p75
sI227
S'        exec ccode in environment'
p76
sI228
S'    except HTTP:'
p77
sI229
S'        raise'
p78
sI230
S'    except RestrictedError:'
p79
sI231
S'        # do not encapsulate (obfuscate) the original RestrictedError'
p80
sI222
S'    try:'
p81
sI223
S'        if isinstance(code, types.CodeType):'
p82
ssS'call'
p83
S"(code='# -*- coding: utf-8 -*-\\n### required - do no del...\\nresponse._vars=response._caller(verificaciones)\\n', environment={'A': <class 'gluon.html.A'>, 'ANY_OF': <class 'gluon.validators.ANY_OF'>, 'ASSIGNJS': <function ASSIGNJS>, 'AppConfig': <function AppConfig>, 'Auth': <class 'gluon.tools.Auth'>, 'B': <class 'gluon.html.B'>, 'BEAUTIFY': <class 'gluon.html.BEAUTIFY'>, 'BODY': <class 'gluon.html.BODY'>, 'BR': <class 'gluon.html.BR'>, 'BUTTON': <class 'gluon.html.BUTTON'>, ...}, layer=r'C:\\Users\\user\\Documents\\universidad\\desarrollo d...pplications\\Virtualizacion\\controllers/default.py')"
p84
sS'func'
p85
S'restricted'
p86
sa(dp87
g62
S'C:\\Users\\user\\Documents\\universidad\\desarrollo de software\\web2py\\applications\\Virtualizacion\\controllers\\default.py'
p88
sg64
(dp89
sg70
I387
sg71
(dp90
I384
S''
sI385
S'    return dict(form=form)'
p91
sI376
S'    #     editable=False,'
p92
sI377
S'    #     searchable=False,'
p93
sI378
S'    #     create=False,'
p94
sI379
S'    #     csv=False,'
p95
sI380
S'    #     showbuttontext=False'
p96
sI381
S'    #     )'
p97
sI382
S''
sI383
S"    form = SQLFORM.factory(Field('city', requires=IS_IN_DB(db.t_resource, 'f_resource', '%(name)s')))"
p98
ssg83
S'()'
p99
sg85
S'<module>'
p100
sa(dp101
g62
S'C:\\Users\\user\\Documents\\universidad\\desarrollo de software\\web2py\\gluon\\globals.py'
p102
sg64
(dp103
S'self'
p104
S'undefined'
p105
sS'f'
S'<function verificaciones>'
p106
ssg70
I417
sg71
(dp107
I416
S'        self._vars = None'
p108
sI417
S'        self._caller = lambda f: f()'
p109
sI418
S'        self._view_environment = None'
p110
sI419
S'        self._custom_commit = None'
p111
sI420
S'        self._custom_rollback = None'
p112
sI421
S"        self.generic_patterns = ['*']"
p113
sI412
S"        self.flash = ''            # used by the default view layout"
p114
sI413
S'        self.meta = Storage()      # used by web2py_ajax.html'
p115
sI414
S'        self.menu = []             # used by the default view layout'
p116
sI415
S'        self.files = []            # used by web2py_ajax.html'
p117
ssg83
S'(f=<function verificaciones>)'
p118
sg85
S'<lambda>'
p119
sa(dp120
g62
S'C:\\Users\\user\\Documents\\universidad\\desarrollo de software\\web2py\\gluon\\tools.py'
p121
sg64
(dp122
S'action'
p123
S'<function verificaciones>'
p124
sS'a'
S'()'
p125
sS'b'
g45
ssg70
I4241
sg71
(dp126
I4236
S'                    flag = condition'
p127
sI4237
S'                if not flag:'
p128
sI4238
S'                    current.session.flash = self.messages.access_denied'
p129
sI4239
S'                    return call_or_redirect('
p130
sI4240
S'                        self.settings.on_failed_authorization)'
p131
sI4241
S'                return action(*a, **b)'
p132
sI4242
S'            f.__doc__ = action.__doc__'
p133
sI4243
S'            f.__name__ = action.__name__'
p134
sI4244
S'            f.__dict__.update(action.__dict__)'
p135
sI4245
S'            return f'
p136
ssg83
S'(*a=(), **b={})'
p137
sg85
S'f'
sa(dp138
g62
S'C:\\Users\\user\\Documents\\universidad\\desarrollo de software\\web2py\\applications\\Virtualizacion\\controllers\\default.py'
p139
sg64
(dp140
sg70
I383
sg71
(dp141
I384
S''
sI385
S'    return dict(form=form)'
p142
sI376
S'    #     editable=False,'
p143
sI377
S'    #     searchable=False,'
p144
sI378
S'    #     create=False,'
p145
sI379
S'    #     csv=False,'
p146
sI380
S'    #     showbuttontext=False'
p147
sI381
S'    #     )'
p148
sI382
S''
sI383
S"    form = SQLFORM.factory(Field('city', requires=IS_IN_DB(db.t_resource, 'f_resource', '%(name)s')))"
p149
ssg83
S'()'
p150
sg85
S'verificaciones'
p151
sa(dp152
g62
S'C:\\Users\\user\\Documents\\universidad\\desarrollo de software\\web2py\\gluon\\sqlhtml.py'
p153
sg64
(dp154
S'attributes'
p155
g45
ssg70
I1809
sg71
(dp156
I1804
S"        # So it won't interfere with SQLDB.define_table"
p157
sI1805
S"        if 'table_name' in attributes:"
p158
sI1806
S"            del attributes['table_name']"
p159
sI1807
S''
sI1808
S'        return SQLFORM(DAL(None).define_table(table_name, *fields),'
p160
sI1809
S'                       **attributes)'
p161
sI1810
S''
sI1811
S'    @staticmethod'
p162
sI1812
S'    def build_query(fields, keywords):'
p163
sI1813
S'        request = current.request'
p164
ssg83
S'(*fields=(<pydal.objects.Field object>,), **attributes={})'
p165
sg85
S'factory'
p166
sa(dp167
g62
S'C:\\Users\\user\\Documents\\universidad\\desarrollo de software\\web2py\\gluon\\sqlhtml.py'
p168
sg64
(dp169
S'default'
p170
S'None'
p171
sS'self.widgets.options.widget'
p172
S"<bound method type.widget of <class 'gluon.sqlhtml.OptionsWidget'>>"
p173
sS'self'
p174
S'<gluon.sqlhtml.SQLFORM object>'
p175
sS'inp'
p176
g105
sS'self.widgets'
p177
S"<Storage {'multiple': <class 'gluon.sqlhtml.Mult...ss 'gluon.sqlhtml.OptionsWidget'>, 'blob': None}>"
p178
sS'field'
p179
S'<pydal.objects.Field object>'
p180
sS'self.widgets.options'
p181
S"<class 'gluon.sqlhtml.OptionsWidget'>"
p182
ssg70
I1295
sg71
(dp183
I1290
S"                    inpval = 'checked'"
p184
sI1291
S'                else:'
p185
sI1292
S"                    inpval = ''"
p186
sI1293
S'            elif OptionsWidget.has_options(field):'
p187
sI1294
S'                if not field.requires.multiple:'
p188
sI1295
S'                    inp = self.widgets.options.widget(field, default)'
p189
sI1296
S'                else:'
p190
sI1297
S'                    inp = self.widgets.multiple.widget(field, default)'
p191
sI1298
S'                if fieldname in keepopts:'
p192
sI1299
S'                    inpval = CAT(*inp.components)'
p193
ssg83
S"(self=<gluon.sqlhtml.SQLFORM object>, table=<Table no_table (id, city)>, record=None, deletable=False, linkto=None, upload=None, fields=['id', 'city'], labels=None, col3={}, submit_button='Submit', delete_label='Check to delete', showid=True, readonly=False, comments=True, keepopts=[], ignore_rw=False, record_id=None, formstyle=None, buttons=['submit'], separator=None, extra_fields=[], **attributes={})"
p194
sg85
g50
sa(dp195
g62
S'C:\\Users\\user\\Documents\\universidad\\desarrollo de software\\web2py\\gluon\\sqlhtml.py'
p196
sg64
(dp197
S'].options'
p198
g105
sS'requires'
p199
S'[<gluon.validators.IS_IN_DB object>]'
p200
sS'options'
p201
g105
ssg70
I313
sg71
(dp202
I308
S'        requires = field.requires'
p203
sI309
S'        if not isinstance(requires, (list, tuple)):'
p204
sI310
S'            requires = [requires]'
p205
sI311
S'        if requires:'
p206
sI312
S"            if hasattr(requires[0], 'options'):"
p207
sI313
S'                options = requires[0].options()'
p208
sI314
S'            else:'
p209
sI315
S'                raise SyntaxError('
p210
sI316
S"                    'widget cannot determine options of %s' % field)"
p211
sI317
S'        opts = [OPTION(v, _value=k) for (k, v) in options]'
p212
ssg83
S"(cls=<class 'gluon.sqlhtml.OptionsWidget'>, field=<pydal.objects.Field object>, value=None, **attributes={})"
p213
sg85
S'widget'
p214
sa(dp215
g62
S'C:\\Users\\user\\Documents\\universidad\\desarrollo de software\\web2py\\gluon\\validators.py'
p216
sg64
(dp217
S'self'
p218
S'<gluon.validators.IS_IN_DB object>'
p219
sS'self.build_set'
p220
S'<bound method IS_IN_DB.build_set of <gluon.validators.IS_IN_DB object>>'
p221
ssg70
I598
sg71
(dp222
I593
S'            self.labels = [self.label % r for r in records]'
p223
sI594
S'        else:'
p224
sI595
S'            self.labels = [self.label(r) for r in records]'
p225
sI596
S''
sI597
S'    def options(self, zero=True):'
p226
sI598
S'        self.build_set()'
p227
sI599
S'        items = [(k, self.labels[i]) for (i, k) in enumerate(self.theset)]'
p228
sI600
S'        if self.sort:'
p229
sI601
S'            items.sort(options_sorter)'
p230
sI602
S'        if zero and self.zero is not None and not self.multiple:'
p231
ssg83
S'(self=<gluon.validators.IS_IN_DB object>, zero=True)'
p232
sg85
S'options'
p233
sa(dp234
g62
S'C:\\Users\\user\\Documents\\universidad\\desarrollo de software\\web2py\\gluon\\validators.py'
p235
sg64
(dp236
S'self.dbset'
p237
S'<Table t_resource (id, f_name, f_area, f_code_co...reated_on, created_by, modified_on, modified_by)>'
p238
sS'table'
p239
g105
sS'self'
p240
S'<gluon.validators.IS_IN_DB object>'
p241
sS'self.dbset.db'
p242
g105
sS'self.ktable'
p243
S"'f_resource'"
p244
ssg70
I569
sg71
(dp245
I564
S'    def set_self_id(self, id):'
p246
sI565
S'        if self._and:'
p247
sI566
S'            self._and.record_id = id'
p248
sI567
S''
sI568
S'    def build_set(self):'
p249
sI569
S'        table = self.dbset.db[self.ktable]'
p250
sI570
S"        if self.fieldnames == '*':"
p251
sI571
S'            fields = [f for f in table]'
p252
sI572
S'        else:'
p253
sI573
S'            fields = [table[k] for k in self.fieldnames]'
p254
ssg83
S'(self=<gluon.validators.IS_IN_DB object>)'
p255
sg85
S'build_set'
p256
sasS'pyver'
p257
S'Python 2.7.9: C:\\Users\\user\\Documents\\universidad\\desarrollo de software\\web2py\\web2py.exe (prefix: )'
p258
sS'session'
p259
g57
(S's\xe5\x08\x00\x00<div><table><tr><td style="font-weight:bold;vertical-align:top;">auth</td><td style="vertical-align:top;">:</td><td><div><table><tr><td style="font-weight:bold;vertical-align:top;">expiration</td><td style="vertical-align:top;">:</td><td><div>3600</div></td></tr><tr><td style="font-weight:bold;vertical-align:top;">hmac_key</td><td style="vertical-align:top;">:</td><td><div>ae774ca0-f63a-4c67-862d-5a51f5e549f9</div></td></tr><tr><td style="font-weight:bold;vertical-align:top;">last_visit</td><td style="vertical-align:top;">:</td><td><div>datetime.datetime(2017, 4, 27, 17, 40, 34, 560000)</div></td></tr><tr><td style="font-weight:bold;vertical-align:top;">remember_me</td><td style="vertical-align:top;">:</td><td><div>False</div></td></tr><tr><td style="font-weight:bold;vertical-align:top;">user</td><td style="vertical-align:top;">:</td><td><div><table><tr><td style="font-weight:bold;vertical-align:top;">email</td><td style="vertical-align:top;">:</td><td><div>yolo@gmail.com</div></td></tr><tr><td style="font-weight:bold;vertical-align:top;">first_name</td><td style="vertical-align:top;">:</td><td><div>yolo</div></td></tr><tr><td style="font-weight:bold;vertical-align:top;">id</td><td style="vertical-align:top;">:</td><td><div>17L</div></td></tr><tr><td style="font-weight:bold;vertical-align:top;">last_name</td><td style="vertical-align:top;">:</td><td><div>yolo</div></td></tr><tr><td style="font-weight:bold;vertical-align:top;">registration_id</td><td style="vertical-align:top;">:</td><td><div></div></td></tr><tr><td style="font-weight:bold;vertical-align:top;">registration_key</td><td style="vertical-align:top;">:</td><td><div></div></td></tr><tr><td style="font-weight:bold;vertical-align:top;">reset_password_key</td><td style="vertical-align:top;">:</td><td><div></div></td></tr></table></div></td></tr><tr><td style="font-weight:bold;vertical-align:top;">user_groups</td><td style="vertical-align:top;">:</td><td><div><table><tr><td style="font-weight:bold;vertical-align:top;">3</td><td style="vertical-align:top;">:</td><td><div>user_17</div></td></tr></table></div></td></tr></table></div></td></tr><tr><td style="font-weight:bold;vertical-align:top;">flash</td><td style="vertical-align:top;">:</td><td><div>None</div></td></tr></table></div>'
tRp260
sS'etype'
p261
S"<type 'exceptions.AttributeError'>"
p262
sS'date'
p263
S'Thu Apr 27 17:40:34 2017'
p264
sS'response'
p265
g57
(S's\x83#\x00\x00<div><table><tr><td style="font-weight:bold;vertical-align:top;">body</td><td style="vertical-align:top;">:</td><td><div>&lt;cStringIO.StringO object at 0x08B48B20&gt;</div></td></tr><tr><td style="font-weight:bold;vertical-align:top;">cookies</td><td style="vertical-align:top;">:</td><td><div><table><tr><td style="font-weight:bold;vertical-align:top;">session_id_virtualizacion</td><td style="vertical-align:top;">:</td><td><div>127.0.0.1-7c35ab5f-defc-4ffc-809e-b20df98d2fd6<table><tr><td style="font-weight:bold;vertical-align:top;">comment</td><td style="vertical-align:top;">:</td><td><div></div></td></tr><tr><td style="font-weight:bold;vertical-align:top;">domain</td><td style="vertical-align:top;">:</td><td><div></div></td></tr><tr><td style="font-weight:bold;vertical-align:top;">expires</td><td style="vertical-align:top;">:</td><td><div></div></td></tr><tr><td style="font-weight:bold;vertical-align:top;">httponly</td><td style="vertical-align:top;">:</td><td><div></div></td></tr><tr><td style="font-weight:bold;vertical-align:top;">max-age</td><td style="vertical-align:top;">:</td><td><div></div></td></tr><tr><td style="font-weight:bold;vertical-align:top;">path</td><td style="vertical-align:top;">:</td><td><div>/</div></td></tr><tr><td style="font-weight:bold;vertical-align:top;">secure</td><td style="vertical-align:top;">:</td><td><div></div></td></tr><tr><td style="font-weight:bold;vertical-align:top;">version</td><td style="vertical-align:top;">:</td><td><div></div></td></tr></table></div></td></tr></table></div></td></tr><tr><td style="font-weight:bold;vertical-align:top;">delimiters</td><td style="vertical-align:top;">:</td><td><div><table><tr><td><div>{{</div></td></tr><tr><td><div>}}</div></td></tr></table></div></td></tr><tr><td style="font-weight:bold;vertical-align:top;">files</td><td style="vertical-align:top;">:</td><td><div><table></table></div></td></tr><tr><td style="font-weight:bold;vertical-align:top;">flash</td><td style="vertical-align:top;">:</td><td><div></div></td></tr><tr><td style="font-weight:bold;vertical-align:top;">form_label_separator</td><td style="vertical-align:top;">:</td><td><div></div></td></tr><tr><td style="font-weight:bold;vertical-align:top;">formstyle</td><td style="vertical-align:top;">:</td><td><div>bootstrap3_inline</div></td></tr><tr><td style="font-weight:bold;vertical-align:top;">generic_patterns</td><td style="vertical-align:top;">:</td><td><div><table><tr><td><div>*</div></td></tr></table></div></td></tr><tr><td style="font-weight:bold;vertical-align:top;">headers</td><td style="vertical-align:top;">:</td><td><div><table><tr><td style="font-weight:bold;vertical-align:top;">X-Powered-By</td><td style="vertical-align:top;">:</td><td><div>web2py</div></td></tr></table></div></td></tr><tr><td style="font-weight:bold;vertical-align:top;">menu</td><td style="vertical-align:top;">:</td><td><div><table><tr><td><div><table><tr><td><div>\xc3\x8dndice</div></td></tr><tr><td><div>False</div></td></tr><tr><td><div>/Virtualizacion/default/index</div></td></tr><tr><td><div><table></table></div></td></tr></table></div></td></tr><tr><td><div><table><tr><td><div>User</div></td></tr><tr><td><div>False</div></td></tr><tr><td><div>/Virtualizacion/default/user_manage</div></td></tr><tr><td><div><table></table></div></td></tr></table></div></td></tr><tr><td><div><table><tr><td><div>Profesor</div></td></tr><tr><td><div>False</div></td></tr><tr><td><div>/Virtualizacion/default/profesor</div></td></tr><tr><td><div><table></table></div></td></tr></table></div></td></tr><tr><td><div><table><tr><td><div>Disenador</div></td></tr><tr><td><div>False</div></td></tr><tr><td><div>/Virtualizacion/default/disenador</div></td></tr><tr><td><div><table></table></div></td></tr></table></div></td></tr><tr><td><div><table><tr><td><div>Course</div></td></tr><tr><td><div>False</div></td></tr><tr><td><div>/Virtualizacion/default/course_manage</div></td></tr><tr><td><div><table></table></div></td></tr></table></div></td></tr><tr><td><div><table><tr><td><div>Recurso</div></td></tr><tr><td><div>False</div></td></tr><tr><td><div>/Virtualizacion/default/recurso</div></td></tr><tr><td><div><table></table></div></td></tr></table></div></td></tr><tr><td><div><table><tr><td><div>Program</div></td></tr><tr><td><div>False</div></td></tr><tr><td><div>/Virtualizacion/default/program_manage</div></td></tr><tr><td><div><table></table></div></td></tr></table></div></td></tr><tr><td><div><table><tr><td><div>Has Course</div></td></tr><tr><td><div>False</div></td></tr><tr><td><div>/Virtualizacion/default/has_course_manage</div></td></tr><tr><td><div><table></table></div></td></tr></table></div></td></tr><tr><td><div><table><tr><td><div>Register User</div></td></tr><tr><td><div>False</div></td></tr><tr><td><div>/Virtualizacion/default/register_user</div></td></tr><tr><td><div><table></table></div></td></tr></table></div></td></tr><tr><td><div><table><tr><td><div>Dashboard</div></td></tr><tr><td><div>False</div></td></tr><tr><td><div>/Virtualizacion/default/dashboard</div></td></tr><tr><td><div><table></table></div></td></tr></table></div></td></tr></table></div></td></tr><tr><td style="font-weight:bold;vertical-align:top;">meta</td><td style="vertical-align:top;">:</td><td><div><table><tr><td style="font-weight:bold;vertical-align:top;">author</td><td style="vertical-align:top;">:</td><td><div>Aminosoft &lt;aminosoft@gmail.com&gt;</div></td></tr><tr><td style="font-weight:bold;vertical-align:top;">description</td><td style="vertical-align:top;">:</td><td><div></div></td></tr><tr><td style="font-weight:bold;vertical-align:top;">keywords</td><td style="vertical-align:top;">:</td><td><div></div></td></tr></table></div></td></tr><tr><td style="font-weight:bold;vertical-align:top;">models_to_run</td><td style="vertical-align:top;">:</td><td><div><table><tr><td><div>^\\w+\\.py$</div></td></tr><tr><td><div>^default/\\w+\\.py$</div></td></tr><tr><td><div>^default/verificaciones/\\w+\\.py$</div></td></tr></table></div></td></tr><tr><td style="font-weight:bold;vertical-align:top;">postprocessing</td><td style="vertical-align:top;">:</td><td><div><table></table></div></td></tr><tr><td style="font-weight:bold;vertical-align:top;">session_client</td><td style="vertical-align:top;">:</td><td><div>127.0.0.1</div></td></tr><tr><td style="font-weight:bold;vertical-align:top;">session_cookie_compression_level</td><td style="vertical-align:top;">:</td><td><div>None</div></td></tr><tr><td style="font-weight:bold;vertical-align:top;">session_cookie_expires</td><td style="vertical-align:top;">:</td><td><div>None</div></td></tr><tr><td style="font-weight:bold;vertical-align:top;">session_data_name</td><td style="vertical-align:top;">:</td><td><div>session_data_virtualizacion</div></td></tr><tr><td style="font-weight:bold;vertical-align:top;">session_file</td><td style="vertical-align:top;">:</td><td><div>&lt;open file &#x27;C:\\\\Users\\\\user\\\\Documents\\\\universidad\\\\desarrollo de software\\\\web2py\\\\applications\\\\Virtualizacion\\\\sessions\\\\12c\\\\1f1\\\\127.0.0.1-7c35ab5f-defc-4ffc-809e-b20df98d2fd6&#x27;, mode &#x27;rb+&#x27; at 0x08974808&gt;</div></td></tr><tr><td style="font-weight:bold;vertical-align:top;">session_filename</td><td style="vertical-align:top;">:</td><td><div>C:\\Users\\user\\Documents\\universidad\\desarrollo de software\\web2py\\applications\\Virtualizacion\\sessions\\127.0.0.1-7c35ab5f-defc-4ffc-809e-b20df98d2fd6</div></td></tr><tr><td style="font-weight:bold;vertical-align:top;">session_hash</td><td style="vertical-align:top;">:</td><td><div>68de184a70d489983af7bfc122ec9a5e</div></td></tr><tr><td style="font-weight:bold;vertical-align:top;">session_id</td><td style="vertical-align:top;">:</td><td><div>127.0.0.1-7c35ab5f-defc-4ffc-809e-b20df98d2fd6</div></td></tr><tr><td style="font-weight:bold;vertical-align:top;">session_id_name</td><td style="vertical-align:top;">:</td><td><div>session_id_virtualizacion</div></td></tr><tr><td style="font-weight:bold;vertical-align:top;">session_locked</td><td style="vertical-align:top;">:</td><td><div>True</div></td></tr><tr><td style="font-weight:bold;vertical-align:top;">session_masterapp</td><td style="vertical-align:top;">:</td><td><div>Virtualizacion</div></td></tr><tr><td style="font-weight:bold;vertical-align:top;">session_new</td><td style="vertical-align:top;">:</td><td><div>False</div></td></tr><tr><td style="font-weight:bold;vertical-align:top;">session_storage_type</td><td style="vertical-align:top;">:</td><td><div>file</div></td></tr><tr><td style="font-weight:bold;vertical-align:top;">status</td><td style="vertical-align:top;">:</td><td><div>200</div></td></tr><tr><td style="font-weight:bold;vertical-align:top;">subtitle</td><td style="vertical-align:top;">:</td><td><div>powered by web2py</div></td></tr><tr><td style="font-weight:bold;vertical-align:top;">title</td><td style="vertical-align:top;">:</td><td><div>Gestor de virtualizacion</div></td></tr><tr><td style="font-weight:bold;vertical-align:top;">view</td><td style="vertical-align:top;">:</td><td><div>default/verificaciones.html</div></td></tr></table></div>'
tRp266
sS'locals'
p267
(dp268
S'self'
p269
S'<gluon.validators.IS_IN_DB object>'
p270
sssS'traceback'
p271
S'Traceback (most recent call last):\n  File "C:\\Users\\user\\Documents\\universidad\\desarrollo de software\\web2py\\gluon\\restricted.py", line 227, in restricted\n    exec ccode in environment\n  File "C:\\Users\\user\\Documents\\universidad\\desarrollo de software\\web2py\\applications\\Virtualizacion\\controllers/default.py", line 387, in <module>\n  File "C:\\Users\\user\\Documents\\universidad\\desarrollo de software\\web2py\\gluon\\globals.py", line 417, in <lambda>\n    self._caller = lambda f: f()\n  File "C:\\Users\\user\\Documents\\universidad\\desarrollo de software\\web2py\\gluon\\tools.py", line 4241, in f\n    return action(*a, **b)\n  File "C:\\Users\\user\\Documents\\universidad\\desarrollo de software\\web2py\\applications\\Virtualizacion\\controllers/default.py", line 383, in verificaciones\n    form = SQLFORM.factory(Field(\'city\', requires=IS_IN_DB(db.t_resource, \'f_resource\', \'%(name)s\')))\n  File "C:\\Users\\user\\Documents\\universidad\\desarrollo de software\\web2py\\gluon\\sqlhtml.py", line 1809, in factory\n    **attributes)\n  File "C:\\Users\\user\\Documents\\universidad\\desarrollo de software\\web2py\\gluon\\sqlhtml.py", line 1295, in __init__\n    inp = self.widgets.options.widget(field, default)\n  File "C:\\Users\\user\\Documents\\universidad\\desarrollo de software\\web2py\\gluon\\sqlhtml.py", line 313, in widget\n    options = requires[0].options()\n  File "C:\\Users\\user\\Documents\\universidad\\desarrollo de software\\web2py\\gluon\\validators.py", line 598, in options\n    self.build_set()\n  File "C:\\Users\\user\\Documents\\universidad\\desarrollo de software\\web2py\\gluon\\validators.py", line 569, in build_set\n    table = self.dbset.db[self.ktable]\nAttributeError: \'Table\' object has no attribute \'db\'\n'
p272
s.