(dp1
S'output'
p2
S"<type 'exceptions.NameError'> global name 'POST' is not defined"
p3
sS'layer'
p4
S'C:\\Users\\user\\Documents\\universidad\\desarrollo de software\\web2py\\applications\\Virtualizacion\\controllers/default.py'
p5
sS'code'
p6
S'# -*- coding: utf-8 -*-\n### required - do no delete\n# Some imports\nfrom time import gmtime, strftime\nimport json\n\ndef user(): \n    print(auth())\n    return dict(form=auth())\ndef download(): return response.download(request,db)\ndef call(): return service()\n### end requires\n@auth.requires_login()\ndef index():\n    # id = auth.id  -> res = db(db.t_usuario.id == id ).select() -> res.f_type\n    #if es instruccional renderizar vista de instruccional ...\n    #return \n\n    res = db(db.t_program).select()\n    n = 0\n    res_n = 0\n    for row in res:\n        res_n=res_n+1\n    notificacion = db(db.t_notification.f_usuario_b == auth.user.id).select()\n    usuarios = []\n    for row in notificacion:\n        usuarios.append( db(db.t_usuario.id == row.f_usuario_a).select(db.t_usuario.f_first_name, distinct=False) )\n        n=n+1\n\n    usuarios_sistema = db(db.t_usuario).select()\n\n    return dict(query=res, length_query = res_n, notification = notificacion, length_notification = n, notification_emited = usuarios, users = usuarios_sistema, length_users = len(usuarios_sistema))\n\ndef error():\n    return dict()\n\n\n@auth.requires_login()\ndef create_notif():\n    user_emisor, user_receptor, titulo, contenido = auth.user.id, request.post_vars[\'user_receptor\'], request.post_vars[\'titulo\'], request.post_vars[\'contenido\']\n    select = db(db.t_usuario.f_first_name == user_receptor).select()\n    id_receptor = 0\n    for row in select:\n        id_receptor = row.id\n    db.t_notification.insert(\n        f_usuario_a = user_emisor,\n        f_usuario_b = id_receptor,\n        f_tittle = titulo,\n        f_viewed = False,\n        f_content = contenido\n        )    \n    return index()\n\n@auth.requires_login()\ndef insert():\n    user_name, name, last_name, user_type, email, password = request.post_vars[\'user_name\'],request.post_vars[\'name\'], request.post_vars[\'last_name\'], request.post_vars[\'user_type\'], request.post_vars[\'email\'], request.post_vars[\'password\']\n    db.t_usuario.insert(\n            f_username=user_name,\n            f_first_name=name,\n            f_last_name=last_name,           \n            f_email=email,\n            f_password=db.auth_user.password.requires[0](password)[0],\n            f_type_user=user_type,\n            f_notification="0"\n        )\n    db.auth_user.insert(\n            first_name=name,\n            last_name=last_name,           \n            email=email,\n            password=db.auth_user.password.requires[0](password)[0],           \n        )\n    return dict() \n\n@auth.requires_login()\ndef registrar_usuario():\n    return dict()\n\n@auth.requires_login()\ndef user_manage():\n    return dict()\n\n@auth.requires_login()\ndef course_manage():\n    form = SQLFORM.smartgrid(db.t_course,onupdate=auth.archive)\n    return locals()\n\n@auth.requires_login()\ndef has_course_manage():\n    form = SQLFORM.smartgrid(db.t_has_course,onupdate=auth.archive)\n    return locals()\n\n@auth.requires_login()\ndef register_user():\n    return dict()\n\n@auth.requires_login()\ndef dashboard():\n    return dict()\n\n@auth.requires_login()\ndef validar_form_recurso(form):\n    c = form.vars.f_name\n    t = form.vars.f_type\n    f = form.vars.f_format\n    d = form.vars.f_description\n    c = c.strip()\n    t = t.strip()\n    f = f.strip()\n    d = d.strip()\n    if c=="" or t=="" or f=="" or d=="":\n        form.errors.f_name = \'todos los campos deben estar llenos\'\n        form.errors.f_type = \'todos los campos deben estar llenos\'\n        form.errors.f_format = \'todos los campos deben estar llenos\'\n        form.errors.f_description = \'todos los campos deben estar llenos\'\n\n@auth.requires_login()\ndef validar_form_archivo(form):\n    c = form.vars.f_name\n    d = form.vars.f_description\n    a = form.vars.f_file\n    c = c.strip()\n    d = d.strip()\n    a = a.strip()\n    if c=="" or d=="" or a=="":\n        form.errors.f_name = \'todos los campos deben estar llenos\'\n        form.errors.f_description = \'todos los campos deben estar llenos\'\n        #form.vars.f_file = \'todos los campos deben estar llenos\'\n\n@auth.requires_login()\ndef recurso():\n    #form =db().select(db.t_resource.f_name, db.t_resource.f_code_course)\n    form = SQLFORM(\n        db.t_resource,\n        fields=[\'f_name\',\'f_code_course\',\'f_responsable\',\'f_type\',\'f_format\',\'f_description\',\'f_is_planilla\'],\n        deletable=True)\n    if form.process(onvalidation=validar_form_recurso).accepted:\n        response.flash = \'Recurso aceptado\'\n    elif form.errors:\n        response.flash = \'Error de formulario\'\n    return dict(form=form)\n\n@auth.requires_login()\ndef display_planillas():\n    form = SQLFORM.smartgrid(db.t_resource, constraints = dict(t_resource = db.t_resource.f_is_planilla == True),\n        onupdate=auth.archive,\n        deletable=False,\n        editable=False,\n        searchable=False,\n        create=False,\n        csv=False,\n        showbuttontext=False)\n    return locals()\n\n\n\n@auth.requires_login()\ndef display_resources():\n    query = db.t_resource.f_is_planilla == False\n    form = SQLFORM.smartgrid(\n        db.t_resource,\n        constraints = dict(t_resource = query),\n        onupdate=auth.archive,\n        deletable=False,\n        editable=False,\n        searchable=False,\n        create=False,\n        csv=False,\n        showbuttontext=False\n        )\n    return locals()\n\n\n@auth.requires_login()\ndef verificar_planillas():\n    id_resource = request.post_vars[\'id_resource\']\n    row = db(db.t_resource.id == id_resource).select().first()\n    row.update_record(f_is_verificado=True)\n    redirect(URL(\'display_planillas\'))  \n    #return locals()\n\n@auth.requires_login()\ndef verificar_resources():\n    id_resource = request.post_vars[\'id_resource\']\n    row = db(db.t_resource.id == id_resource).select().first()\n    row.update_record(f_is_verificado=True)\n    redirect(URL(\'display_resources\'))  \n    #return locals()\n\n@auth.requires_login()\ndef desverificar_resources():\n    id_resource = request.post_vars[\'id_resource\']\n    comentario = request.post_vars[\'comment\']\n    row = db(db.t_resource.id == id_resource).select().first()\n    row.update_record(f_is_verificado=False)\n\n    course = db.t_comments.insert(\n        recurso = id_resource,\n        texto = comentario,\n    )\n\n    redirect(URL(\'display_resources\'))  \n    #return locals()\n\n\ndef display_file_form():\n    record = db.t_file(request.args(0))\n    form = SQLFORM(db.t_file, record, deletable=True,\n                  upload=URL(\'download\'))\n\n    if form.process(onvalidation=validar_form_archivo).accepted:\n       response.flash = \'form accepted\'\n    elif form.errors:\n       response.flash = \'form has errors\'\n    return dict(form=form)\n\ndef display_files():\n    form = SQLFORM.smartgrid(db.t_file,onupdate=auth.archive)\n    return locals()\n    \n@auth.requires_login()\ndef program_manage():\n    return dict()\n\n@auth.requires_login()\ndef program_creator():\n    program_type = request.post_vars[\'program_type\']\n    program_name = ""\n\n    if (program_type == "carreraLarga"):\n        program_name = "Carrera Larga"\n    elif (program_type == "carreraCorta"):\n        program_name = "Carrera Corta"\n    elif (program_type == "postgrado"):\n        program_name = "Postgrado"\n    elif (program_type == "diplomado"):\n        program_name = "Diplomado"\n    elif (program_type == "curso"):\n        program_name = "Curso"\n    elif (program_type == "programa"):\n        program_name = "Programa"\n\n    data = {\'program_type\': program_type, \'program_name\': program_name}\n    return data\n\n@auth.requires_login()\ndef program_creator_courses():\n    program_type = request.get_vars[\'type\']\n    duration = int(request.post_vars[\'years\'])\n    modality = request.post_vars[\'modality\']\n    name = request.post_vars[\'name\']\n    code = request.post_vars[\'code\']\n\n   # nulo = db(db.t_course.f_code == code).select()\n   # if nulo:\n\n   # print(nulo)\n   # print("HOLA")\n\n    # Getting size\n    size = 0\n    if (modality==\'trimestral\'):\n        size = 3\n    elif (modality==\'semestral\'):\n        size = 6\n    elif (modality==\'anual\'):\n        size = 12\n\n    # Create Database Entries\n    if (program_type in (\'carreraLarga\', \'carreraCorta\', \'postgrado\')):\n        # Nivel de anidacion I\n        level_one_id = db.t_program.insert(\n            f_name = name,\n            f_modality = modality,\n            f_code = code,\n            f_duration = duration,\n            f_level = 0\n        )\n\n        complete_duration = int(duration)*12/size\n\n        programsIDs = list()\n\n        for i in range(0, complete_duration):\n            level_two_id = db.t_program.insert(\n                f_name = name + \' - \' + modality + \' - \' + str(i),\n                f_modality = None,\n                f_code = code,\n                f_duration = size,\n                f_level = 1\n            )\n\n            db.t_has_program.insert(\n                f_program_a = level_one_id,\n                f_program_b = level_two_id\n            )\n\n            programsIDs.append(level_two_id)\n    elif (program_type in (\'diplomado\', \'curso\') ):\n        complete_duration = int(duration)*12/size\n\n        # Nivel de anidacion 0 \n        level_one_id = db.t_program.insert(\n            f_name = name,\n            f_modality = modality,\n            f_code = code,\n            f_duration = duration\n        )\n        programsIDs.append(level_one_id)\n    elif (program_type == \'programa\'):\n        # Nivel de anidacion variable\n        complete_duration = int(duration)*12/size\n        pass\n\n    return {\'duration\': complete_duration, \'size\': size, \'modality\' : modality, \'programs\': programsIDs}\n\n@auth.requires_login()\ndef save_course():\n    program = request.post_vars[\'program\']\n    course_code = request.post_vars[\'course_code\']\n    course_name = request.post_vars[\'course_name\']\n    message = \'\'\n    status = False\n    \n    # DB Inserts\n    validate = False\n    sanity_check_course = db(db.t_course.f_code == course_code).select()\n\n    for row in sanity_check_course:\n        validate = True\n\n    if ( not validate ):\n        print("This case is triggered")\n        course = db.t_course.insert(\n            f_code = course_code,\n            f_name = course_name,\n        )\n    else:\n        course = sanity_check_course[0]\n\n    has_course = db.t_has_course.insert(\n        f_program_has = program,\n        f_course_has = course\n    );\n\n    status = has_course != None and course != None\n\n    data = {\'course\': course, \'has_course\': has_course, \'course_name\': course_name, \'status\': status}\n    return data\n\n\n@auth.requires_login()\ndef project_manage():\n    return dict()\n\n\n@auth.requires_login()\ndef project_asign_responsibles():\n    codigo = request.get_vars[\'codigo\']\n    data = list()\n    courses = db(db.t_has_course.f_program_has.belongs(db.t_program.f_code == codigo)).select()\n    for course in courses:\n        data.append(db(db.t_course.id == course.f_course_has).select())\n    return dict(courses_ = data)\n\n\n@auth.requires_login()\ndef get_user_names():\n    usernames = db(db.auth_user).select(db.auth_user.first_name, db.auth_user.last_name)\n    names = \'\';\n    for name in usernames:\n        names = names + str(name[\'auth_user.first_name\']) + \' \' + str(name[\'auth_user.last_name\']) + \'|\'\n    data = {\'usernames\': names}\n    return data\n\n@auth.requires_login()\ndef profesor():\n    return dict()\n\n@auth.requires_login()\ndef disenador():\n    return dict()\n\n@request.restful()\ndef api():\n    response.view = \'generic.\'+request.extension\n    def GET(*args,**vars):\n        patterns = \'auto\'\n        parser = db.parse_as_rest(patterns,args,vars)\n        if parser.status == 200:\n            return dict(content=parser.response)\n        else:\n            raise HTTP(parser.status,parser.error)\n    def POST(table_name,**vars):\n        return db[table_name].validate_and_insert(**vars)\n    def PUT(table_name,record_id,**vars):\n        return db(db[table_name]._id==record_id).update(**vars)\n    def DELETE(table_name,record_id):\n        return db(db[table_name]._id==record_id).delete()\n    return dict(GET=GET, POST=POST, PUT=PUT, DELETE=DELETE)\n\n@request.restful()\ndef api_user():\n    response.view = \'generic.json\'\n\n    def GET(*args,**vars):\n        #patterns = \'/auth_user/id/{auth_user.id}\'\n        usuarios = db(db.auth_user).select()\n\n        return dict(usuarios=usuarios)\n\n\n    return dict(GET=GET, POST=POST, PUT=PUT, DELETE=DELETE)\nresponse._vars=response._caller(api_user)\n'
p7
sS'snapshot'
p8
(dp9
S'exception'
p10
(dp11
S'__hash__'
p12
S"<method-wrapper '__hash__' of exceptions.NameError object>"
p13
sS'__setattr__'
p14
S"<method-wrapper '__setattr__' of exceptions.NameError object>"
p15
sS'__reduce_ex__'
p16
S'<built-in method __reduce_ex__ of exceptions.NameError object>'
p17
sS'__getslice__'
p18
S"<method-wrapper '__getslice__' of exceptions.NameError object>"
p19
sS'__getitem__'
p20
S"<method-wrapper '__getitem__' of exceptions.NameError object>"
p21
sS'__setstate__'
p22
S'<built-in method __setstate__ of exceptions.NameError object>'
p23
sS'__reduce__'
p24
S'<built-in method __reduce__ of exceptions.NameError object>'
p25
sS'__str__'
p26
S"<method-wrapper '__str__' of exceptions.NameError object>"
p27
sS'__format__'
p28
S'<built-in method __format__ of exceptions.NameError object>'
p29
sS'__getattribute__'
p30
S"<method-wrapper '__getattribute__' of exceptions.NameError object>"
p31
sS'__class__'
p32
S"<type 'exceptions.NameError'>"
p33
sS'__unicode__'
p34
S'<built-in method __unicode__ of exceptions.NameError object>'
p35
sS'__delattr__'
p36
S"<method-wrapper '__delattr__' of exceptions.NameError object>"
p37
sS'__subclasshook__'
p38
S'<built-in method __subclasshook__ of type object>'
p39
sS'__repr__'
p40
S"<method-wrapper '__repr__' of exceptions.NameError object>"
p41
sS'args'
p42
S'("global name \'POST\' is not defined",)'
p43
sS'__dict__'
p44
S'{}'
p45
sS'__sizeof__'
p46
S'<built-in method __sizeof__ of exceptions.NameError object>'
p47
sS'__doc__'
p48
S"'Name not found globally.'"
p49
sS'__init__'
p50
S"<method-wrapper '__init__' of exceptions.NameError object>"
p51
sS'__new__'
p52
S'<built-in method __new__ of type object>'
p53
ssS'evalue'
p54
S"global name 'POST' is not defined"
p55
sS'request'
p56
cgluon.html
XML_unpickle
p57
(S's\xf7_\x00\x00<div><table><tr><td style="font-weight:bold;vertical-align:top;">ajax</td><td style="vertical-align:top;">:</td><td><div>False</div></td></tr><tr><td style="font-weight:bold;vertical-align:top;">application</td><td style="vertical-align:top;">:</td><td><div>Virtualizacion</div></td></tr><tr><td style="font-weight:bold;vertical-align:top;">args</td><td style="vertical-align:top;">:</td><td><div><table></table></div></td></tr><tr><td style="font-weight:bold;vertical-align:top;">cid</td><td style="vertical-align:top;">:</td><td><div>None</div></td></tr><tr><td style="font-weight:bold;vertical-align:top;">client</td><td style="vertical-align:top;">:</td><td><div>127.0.0.1</div></td></tr><tr><td style="font-weight:bold;vertical-align:top;">controller</td><td style="vertical-align:top;">:</td><td><div>default</div></td></tr><tr><td style="font-weight:bold;vertical-align:top;">cookies</td><td style="vertical-align:top;">:</td><td><div><table><tr><td style="font-weight:bold;vertical-align:top;">session_id_admin</td><td style="vertical-align:top;">:</td><td><div>127.0.0.1-a7f04b1e-2851-463a-b3b6-70195aaf631e<table><tr><td style="font-weight:bold;vertical-align:top;">comment</td><td style="vertical-align:top;">:</td><td><div></div></td></tr><tr><td style="font-weight:bold;vertical-align:top;">domain</td><td style="vertical-align:top;">:</td><td><div></div></td></tr><tr><td style="font-weight:bold;vertical-align:top;">expires</td><td style="vertical-align:top;">:</td><td><div></div></td></tr><tr><td style="font-weight:bold;vertical-align:top;">httponly</td><td style="vertical-align:top;">:</td><td><div></div></td></tr><tr><td style="font-weight:bold;vertical-align:top;">max-age</td><td style="vertical-align:top;">:</td><td><div></div></td></tr><tr><td style="font-weight:bold;vertical-align:top;">path</td><td style="vertical-align:top;">:</td><td><div></div></td></tr><tr><td style="font-weight:bold;vertical-align:top;">secure</td><td style="vertical-align:top;">:</td><td><div></div></td></tr><tr><td style="font-weight:bold;vertical-align:top;">version</td><td style="vertical-align:top;">:</td><td><div></div></td></tr></table></div></td></tr><tr><td style="font-weight:bold;vertical-align:top;">session_id_virtualizacion</td><td style="vertical-align:top;">:</td><td><div>127.0.0.1-1006cff3-1b30-42ca-af21-d11d3d534dac<table><tr><td style="font-weight:bold;vertical-align:top;">comment</td><td style="vertical-align:top;">:</td><td><div></div></td></tr><tr><td style="font-weight:bold;vertical-align:top;">domain</td><td style="vertical-align:top;">:</td><td><div></div></td></tr><tr><td style="font-weight:bold;vertical-align:top;">expires</td><td style="vertical-align:top;">:</td><td><div></div></td></tr><tr><td style="font-weight:bold;vertical-align:top;">httponly</td><td style="vertical-align:top;">:</td><td><div></div></td></tr><tr><td style="font-weight:bold;vertical-align:top;">max-age</td><td style="vertical-align:top;">:</td><td><div></div></td></tr><tr><td style="font-weight:bold;vertical-align:top;">path</td><td style="vertical-align:top;">:</td><td><div></div></td></tr><tr><td style="font-weight:bold;vertical-align:top;">secure</td><td style="vertical-align:top;">:</td><td><div></div></td></tr><tr><td style="font-weight:bold;vertical-align:top;">version</td><td style="vertical-align:top;">:</td><td><div></div></td></tr></table></div></td></tr><tr><td style="font-weight:bold;vertical-align:top;">session_id_welcome</td><td style="vertical-align:top;">:</td><td><div>127.0.0.1-0ab7f492-042f-4d47-9282-319c9c819213<table><tr><td style="font-weight:bold;vertical-align:top;">comment</td><td style="vertical-align:top;">:</td><td><div></div></td></tr><tr><td style="font-weight:bold;vertical-align:top;">domain</td><td style="vertical-align:top;">:</td><td><div></div></td></tr><tr><td style="font-weight:bold;vertical-align:top;">expires</td><td style="vertical-align:top;">:</td><td><div></div></td></tr><tr><td style="font-weight:bold;vertical-align:top;">httponly</td><td style="vertical-align:top;">:</td><td><div></div></td></tr><tr><td style="font-weight:bold;vertical-align:top;">max-age</td><td style="vertical-align:top;">:</td><td><div></div></td></tr><tr><td style="font-weight:bold;vertical-align:top;">path</td><td style="vertical-align:top;">:</td><td><div></div></td></tr><tr><td style="font-weight:bold;vertical-align:top;">secure</td><td style="vertical-align:top;">:</td><td><div></div></td></tr><tr><td style="font-weight:bold;vertical-align:top;">version</td><td style="vertical-align:top;">:</td><td><div></div></td></tr></table></div></td></tr></table></div></td></tr><tr><td style="font-weight:bold;vertical-align:top;">env</td><td style="vertical-align:top;">:</td><td><div><table><tr><td style="font-weight:bold;vertical-align:top;">HTTP_ACCEPT</td><td style="vertical-align:top;">:</td><td><div>text/html,application/xhtml+xml,application/xml;q=0.9,image/webp,*/*;q=0.8</div></td></tr><tr><td style="font-weight:bold;vertical-align:top;">HTTP_ACCEPT_ENCODING</td><td style="vertical-align:top;">:</td><td><div>gzip, deflate, sdch, br</div></td></tr><tr><td style="font-weight:bold;vertical-align:top;">HTTP_ACCEPT_LANGUAGE</td><td style="vertical-align:top;">:</td><td><div>es,en-US;q=0.8,en;q=0.6</div></td></tr><tr><td style="font-weight:bold;vertical-align:top;">HTTP_CONNECTION</td><td style="vertical-align:top;">:</td><td><div>keep-alive</div></td></tr><tr><td style="font-weight:bold;vertical-align:top;">HTTP_COOKIE</td><td style="vertical-align:top;">:</td><td><div>session_id_welcome=127.0.0.1-0ab7f492-042f-4d47-9282-319c9c819213; session_id_admin=127.0.0.1-a7f04b1e-2851-463a-b3b6-70195aaf631e; session_id_virtualizacion=127.0.0.1-1006cff3-1b30-42ca-af21-d11d3d534dac</div></td></tr><tr><td style="font-weight:bold;vertical-align:top;">HTTP_HOST</td><td style="vertical-align:top;">:</td><td><div>127.0.0.1:8000</div></td></tr><tr><td style="font-weight:bold;vertical-align:top;">HTTP_UPGRADE_INSECURE_REQUESTS</td><td style="vertical-align:top;">:</td><td><div>1</div></td></tr><tr><td style="font-weight:bold;vertical-align:top;">HTTP_USER_AGENT</td><td style="vertical-align:top;">:</td><td><div>Mozilla/5.0 (Windows NT 6.1; Win64; x64) AppleWebKit/537.36 (KHTML, like Gecko) Chrome/58.0.3029.110 Safari/537.36</div></td></tr><tr><td style="font-weight:bold;vertical-align:top;">PATH_INFO</td><td style="vertical-align:top;">:</td><td><div>/Virtualizacion/default/api_user</div></td></tr><tr><td style="font-weight:bold;vertical-align:top;">QUERY_STRING</td><td style="vertical-align:top;">:</td><td><div></div></td></tr><tr><td style="font-weight:bold;vertical-align:top;">REMOTE_ADDR</td><td style="vertical-align:top;">:</td><td><div>127.0.0.1</div></td></tr><tr><td style="font-weight:bold;vertical-align:top;">REMOTE_PORT</td><td style="vertical-align:top;">:</td><td><div>53915</div></td></tr><tr><td style="font-weight:bold;vertical-align:top;">REQUEST_METHOD</td><td style="vertical-align:top;">:</td><td><div>GET</div></td></tr><tr><td style="font-weight:bold;vertical-align:top;">SCRIPT_NAME</td><td style="vertical-align:top;">:</td><td><div></div></td></tr><tr><td style="font-weight:bold;vertical-align:top;">SERVER_NAME</td><td style="vertical-align:top;">:</td><td><div>Uriel</div></td></tr><tr><td style="font-weight:bold;vertical-align:top;">SERVER_PORT</td><td style="vertical-align:top;">:</td><td><div>8000</div></td></tr><tr><td style="font-weight:bold;vertical-align:top;">SERVER_PROTOCOL</td><td style="vertical-align:top;">:</td><td><div>HTTP/1.1</div></td></tr><tr><td style="font-weight:bold;vertical-align:top;">SERVER_SOFTWARE</td><td style="vertical-align:top;">:</td><td><div>Rocket 1.2.6</div></td></tr><tr><td style="font-weight:bold;vertical-align:top;">app_folders</td><td style="vertical-align:top;">:</td><td><div>set([&#x27;C:\\\\Users\\\\user\\\\Documents\\\\universidad\\\\desarrollo de software\\\\web2py\\\\applications\\\\Virtualizacion\\\\&#x27;, &#x27;C:\\\\Users\\\\user\\\\Documents\\\\universidad\\\\desarrollo de software\\\\web2py\\\\applications\\\\welcome\\\\&#x27;, &#x27;C:\\\\Users\\\\user\\\\Documents\\\\universidad\\\\desarrollo de software\\\\web2py\\\\applications\\\\admin\\\\&#x27;])</div></td></tr><tr><td style="font-weight:bold;vertical-align:top;">applications_parent</td><td style="vertical-align:top;">:</td><td><div>C:\\Users\\user\\Documents\\universidad\\desarrollo de software\\web2py</div></td></tr><tr><td style="font-weight:bold;vertical-align:top;">cmd_args</td><td style="vertical-align:top;">:</td><td><div><table></table></div></td></tr><tr><td style="font-weight:bold;vertical-align:top;">cmd_options</td><td style="vertical-align:top;">:</td><td><div>&lt;Values at 0x308af30: {&#x27;verbose&#x27;: False, &#x27;ip&#x27;: &#x27;127.0.0.1&#x27;, &#x27;debuglevel&#x27;: 30, &#x27;with_scheduler&#x27;: False, &#x27;shutdown_timeout&#x27;: 5, &#x27;taskbar&#x27;: False, &#x27;with_coverage&#x27;: False, &#x27;pid_filename&#x27;: &#x27;httpserver.pid&#x27;, &#x27;maxthreads&#x27;: None, &#x27;softcron&#x27;: False, &#x27;server_name&#x27;: &#x27;Uriel&#x27;, &#x27;bpython&#x27;: False, &#x27;nogui&#x27;: False, &#x27;port&#x27;: 8000, &#x27;print_errors&#x27;: False, &#x27;extcron&#x27;: False, &#x27;runcron&#x27;: False, &#x27;run_system_tests&#x27;: False, &#x27;test&#x27;: None, &#x27;folder&#x27;: &#x27;C:\\\\Users\\\\user\\\\Documents\\\\universidad\\\\desarrollo de software\\\\web2py&#x27;, &#x27;config&#x27;: &#x27;&#x27;, &#x27;minthreads&#x27;: None, &#x27;shell&#x27;: None, &#x27;run&#x27;: &#x27;&#x27;, &#x27;log_filename&#x27;: &#x27;httpserver.log&#x27;, &#x27;profiler_dir&#x27;: None, &#x27;args&#x27;: [&#x27;&#x27;], &#x27;socket_timeout&#x27;: 5, &#x27;ssl_ca_certificate&#x27;: None, &#x27;scheduler&#x27;: None, &#x27;interfaces&#x27;: None, &#x27;ssl_private_key&#x27;: &#x27;&#x27;, &#x27;gae&#x27;: None, &#x27;password&#x27;: &#x27;******&#x27;, &#x27;request_queue_size&#x27;: 5, &#x27;ssl_certificate&#x27;: &#x27;&#x27;, &#x27;cronjob&#x27;: False, &#x27;numthreads&#x27;: None, &#x27;quiet&#x27;: False, &#x27;import_models&#x27;: False, &#x27;timeout&#x27;: 10, &#x27;plain&#x27;: False, &#x27;nobanner&#x27;: False}&gt;</div></td></tr><tr><td style="font-weight:bold;vertical-align:top;">db_sessions</td><td style="vertical-align:top;">:</td><td><div>set([])</div></td></tr><tr><td style="font-weight:bold;vertical-align:top;">debugging</td><td style="vertical-align:top;">:</td><td><div>False</div></td></tr><tr><td style="font-weight:bold;vertical-align:top;">gluon_parent</td><td style="vertical-align:top;">:</td><td><div>C:\\Users\\user\\Documents\\universidad\\desarrollo de software\\web2py</div></td></tr><tr><td style="font-weight:bold;vertical-align:top;">http_accept</td><td style="vertical-align:top;">:</td><td><div>text/html,application/xhtml+xml,application/xml;q=0.9,image/webp,*/*;q=0.8</div></td></tr><tr><td style="font-weight:bold;vertical-align:top;">http_accept_encoding</td><td style="vertical-align:top;">:</td><td><div>gzip, deflate, sdch, br</div></td></tr><tr><td style="font-weight:bold;vertical-align:top;">http_accept_language</td><td style="vertical-align:top;">:</td><td><div>es,en-US;q=0.8,en;q=0.6</div></td></tr><tr><td style="font-weight:bold;vertical-align:top;">http_connection</td><td style="vertical-align:top;">:</td><td><div>keep-alive</div></td></tr><tr><td style="font-weight:bold;vertical-align:top;">http_cookie</td><td style="vertical-align:top;">:</td><td><div>session_id_welcome=127.0.0.1-0ab7f492-042f-4d47-9282-319c9c819213; session_id_admin=127.0.0.1-a7f04b1e-2851-463a-b3b6-70195aaf631e; session_id_virtualizacion=127.0.0.1-1006cff3-1b30-42ca-af21-d11d3d534dac</div></td></tr><tr><td style="font-weight:bold;vertical-align:top;">http_host</td><td style="vertical-align:top;">:</td><td><div>127.0.0.1:8000</div></td></tr><tr><td style="font-weight:bold;vertical-align:top;">http_upgrade_insecure_requests</td><td style="vertical-align:top;">:</td><td><div>1</div></td></tr><tr><td style="font-weight:bold;vertical-align:top;">http_user_agent</td><td style="vertical-align:top;">:</td><td><div>Mozilla/5.0 (Windows NT 6.1; Win64; x64) AppleWebKit/537.36 (KHTML, like Gecko) Chrome/58.0.3029.110 Safari/537.36</div></td></tr><tr><td style="font-weight:bold;vertical-align:top;">is_jython</td><td style="vertical-align:top;">:</td><td><div>False</div></td></tr><tr><td style="font-weight:bold;vertical-align:top;">is_pypy</td><td style="vertical-align:top;">:</td><td><div>False</div></td></tr><tr><td style="font-weight:bold;vertical-align:top;">is_source</td><td style="vertical-align:top;">:</td><td><div>False</div></td></tr><tr><td style="font-weight:bold;vertical-align:top;">local_hosts</td><td style="vertical-align:top;">:</td><td><div><table><tr><td><div>fe80::548d:31a:7304:a982%31</div></td></tr><tr><td><div>2001:0:9d38:953c:3c93:8ff:3f57:fef7</div></td></tr><tr><td><div>fe80::f43e:57be:b8fd:2bb0%30</div></td></tr><tr><td><div>192.168.75.1</div></td></tr><tr><td><div>2620:9b::190c:282d</div></td></tr><tr><td><div>::ffff:127.0.0.1</div></td></tr><tr><td><div>::1</div></td></tr><tr><td><div>fe80::1146:83f2:5ef1:25a8%27</div></td></tr><tr><td><div>Uriel</div></td></tr><tr><td><div>fe80::3c93:8ff:3f57:fef7%26</div></td></tr><tr><td><div>192.168.1.8</div></td></tr><tr><td><div>127.0.0.1</div></td></tr><tr><td><div>192.168.56.1</div></td></tr></table></div></td></tr><tr><td style="font-weight:bold;vertical-align:top;">path_info</td><td style="vertical-align:top;">:</td><td><div>/Virtualizacion/default/api_user</div></td></tr><tr><td style="font-weight:bold;vertical-align:top;">query_string</td><td style="vertical-align:top;">:</td><td><div></div></td></tr><tr><td style="font-weight:bold;vertical-align:top;">remote_addr</td><td style="vertical-align:top;">:</td><td><div>127.0.0.1</div></td></tr><tr><td style="font-weight:bold;vertical-align:top;">remote_port</td><td style="vertical-align:top;">:</td><td><div>53915</div></td></tr><tr><td style="font-weight:bold;vertical-align:top;">request_method</td><td style="vertical-align:top;">:</td><td><div>GET</div></td></tr><tr><td style="font-weight:bold;vertical-align:top;">request_uri</td><td style="vertical-align:top;">:</td><td><div>/Virtualizacion/default/api_user</div></td></tr><tr><td style="font-weight:bold;vertical-align:top;">script_name</td><td style="vertical-align:top;">:</td><td><div></div></td></tr><tr><td style="font-weight:bold;vertical-align:top;">server_name</td><td style="vertical-align:top;">:</td><td><div>Uriel</div></td></tr><tr><td style="font-weight:bold;vertical-align:top;">server_port</td><td style="vertical-align:top;">:</td><td><div>8000</div></td></tr><tr><td style="font-weight:bold;vertical-align:top;">server_protocol</td><td style="vertical-align:top;">:</td><td><div>HTTP/1.1</div></td></tr><tr><td style="font-weight:bold;vertical-align:top;">server_software</td><td style="vertical-align:top;">:</td><td><div>Rocket 1.2.6</div></td></tr><tr><td style="font-weight:bold;vertical-align:top;">web2py_path</td><td style="vertical-align:top;">:</td><td><div>C:\\Users\\user\\Documents\\universidad\\desarrollo de software\\web2py</div></td></tr><tr><td style="font-weight:bold;vertical-align:top;">web2py_version</td><td style="vertical-align:top;">:</td><td><div>2.14.6-stable+timestamp.2016.05.10.00.21.47</div></td></tr><tr><td style="font-weight:bold;vertical-align:top;">wsgi.errors</td><td style="vertical-align:top;">:</td><td><div>&lt;open file &#x27;&lt;stderr&gt;&#x27;, mode &#x27;w&#x27; at 0x0045D0D0&gt;</div></td></tr><tr><td style="font-weight:bold;vertical-align:top;">wsgi.file_wrapper</td><td style="vertical-align:top;">:</td><td><div>&lt;class wsgiref.util.FileWrapper at 0x0384A110&gt;</div></td></tr><tr><td style="font-weight:bold;vertical-align:top;">wsgi.input</td><td style="vertical-align:top;">:</td><td><div>&lt;socket._fileobject object at 0x090F69F0&gt;</div></td></tr><tr><td style="font-weight:bold;vertical-align:top;">wsgi.multiprocess</td><td style="vertical-align:top;">:</td><td><div>False</div></td></tr><tr><td style="font-weight:bold;vertical-align:top;">wsgi.multithread</td><td style="vertical-align:top;">:</td><td><div>True</div></td></tr><tr><td style="font-weight:bold;vertical-align:top;">wsgi.run_once</td><td style="vertical-align:top;">:</td><td><div>False</div></td></tr><tr><td style="font-weight:bold;vertical-align:top;">wsgi.url_scheme</td><td style="vertical-align:top;">:</td><td><div>http</div></td></tr><tr><td style="font-weight:bold;vertical-align:top;">wsgi.version</td><td style="vertical-align:top;">:</td><td><div><table><tr><td><div>1</div></td></tr><tr><td><div>0</div></td></tr></table></div></td></tr><tr><td style="font-weight:bold;vertical-align:top;">wsgi_errors</td><td style="vertical-align:top;">:</td><td><div>&lt;open file &#x27;&lt;stderr&gt;&#x27;, mode &#x27;w&#x27; at 0x0045D0D0&gt;</div></td></tr><tr><td style="font-weight:bold;vertical-align:top;">wsgi_file_wrapper</td><td style="vertical-align:top;">:</td><td><div>&lt;class wsgiref.util.FileWrapper at 0x0384A110&gt;</div></td></tr><tr><td style="font-weight:bold;vertical-align:top;">wsgi_input</td><td style="vertical-align:top;">:</td><td><div>&lt;socket._fileobject object at 0x090F69F0&gt;</div></td></tr><tr><td style="font-weight:bold;vertical-align:top;">wsgi_multiprocess</td><td style="vertical-align:top;">:</td><td><div>False</div></td></tr><tr><td style="font-weight:bold;vertical-align:top;">wsgi_multithread</td><td style="vertical-align:top;">:</td><td><div>True</div></td></tr><tr><td style="font-weight:bold;vertical-align:top;">wsgi_run_once</td><td style="vertical-align:top;">:</td><td><div>False</div></td></tr><tr><td style="font-weight:bold;vertical-align:top;">wsgi_url_scheme</td><td style="vertical-align:top;">:</td><td><div>http</div></td></tr><tr><td style="font-weight:bold;vertical-align:top;">wsgi_version</td><td style="vertical-align:top;">:</td><td><div><table><tr><td><div>1</div></td></tr><tr><td><div>0</div></td></tr></table></div></td></tr></table></div></td></tr><tr><td style="font-weight:bold;vertical-align:top;">extension</td><td style="vertical-align:top;">:</td><td><div>html</div></td></tr><tr><td style="font-weight:bold;vertical-align:top;">folder</td><td style="vertical-align:top;">:</td><td><div>C:\\Users\\user\\Documents\\universidad\\desarrollo de software\\web2py\\applications\\Virtualizacion\\</div></td></tr><tr><td style="font-weight:bold;vertical-align:top;">function</td><td style="vertical-align:top;">:</td><td><div>api_user</div></td></tr><tr><td style="font-weight:bold;vertical-align:top;">global_settings</td><td style="vertical-align:top;">:</td><td><div><table><tr><td style="font-weight:bold;vertical-align:top;">app_folders</td><td style="vertical-align:top;">:</td><td><div>set([&#x27;C:\\\\Users\\\\user\\\\Documents\\\\universidad\\\\desarrollo de software\\\\web2py\\\\applications\\\\Virtualizacion\\\\&#x27;, &#x27;C:\\\\Users\\\\user\\\\Documents\\\\universidad\\\\desarrollo de software\\\\web2py\\\\applications\\\\welcome\\\\&#x27;, &#x27;C:\\\\Users\\\\user\\\\Documents\\\\universidad\\\\desarrollo de software\\\\web2py\\\\applications\\\\admin\\\\&#x27;])</div></td></tr><tr><td style="font-weight:bold;vertical-align:top;">applications_parent</td><td style="vertical-align:top;">:</td><td><div>C:\\Users\\user\\Documents\\universidad\\desarrollo de software\\web2py</div></td></tr><tr><td style="font-weight:bold;vertical-align:top;">cmd_args</td><td style="vertical-align:top;">:</td><td><div><table></table></div></td></tr><tr><td style="font-weight:bold;vertical-align:top;">cmd_options</td><td style="vertical-align:top;">:</td><td><div>&lt;Values at 0x308af30: {&#x27;verbose&#x27;: False, &#x27;ip&#x27;: &#x27;127.0.0.1&#x27;, &#x27;debuglevel&#x27;: 30, &#x27;with_scheduler&#x27;: False, &#x27;shutdown_timeout&#x27;: 5, &#x27;taskbar&#x27;: False, &#x27;with_coverage&#x27;: False, &#x27;pid_filename&#x27;: &#x27;httpserver.pid&#x27;, &#x27;maxthreads&#x27;: None, &#x27;softcron&#x27;: False, &#x27;server_name&#x27;: &#x27;Uriel&#x27;, &#x27;bpython&#x27;: False, &#x27;nogui&#x27;: False, &#x27;port&#x27;: 8000, &#x27;print_errors&#x27;: False, &#x27;extcron&#x27;: False, &#x27;runcron&#x27;: False, &#x27;run_system_tests&#x27;: False, &#x27;test&#x27;: None, &#x27;folder&#x27;: &#x27;C:\\\\Users\\\\user\\\\Documents\\\\universidad\\\\desarrollo de software\\\\web2py&#x27;, &#x27;config&#x27;: &#x27;&#x27;, &#x27;minthreads&#x27;: None, &#x27;shell&#x27;: None, &#x27;run&#x27;: &#x27;&#x27;, &#x27;log_filename&#x27;: &#x27;httpserver.log&#x27;, &#x27;profiler_dir&#x27;: None, &#x27;args&#x27;: [&#x27;&#x27;], &#x27;socket_timeout&#x27;: 5, &#x27;ssl_ca_certificate&#x27;: None, &#x27;scheduler&#x27;: None, &#x27;interfaces&#x27;: None, &#x27;ssl_private_key&#x27;: &#x27;&#x27;, &#x27;gae&#x27;: None, &#x27;password&#x27;: &#x27;******&#x27;, &#x27;request_queue_size&#x27;: 5, &#x27;ssl_certificate&#x27;: &#x27;&#x27;, &#x27;cronjob&#x27;: False, &#x27;numthreads&#x27;: None, &#x27;quiet&#x27;: False, &#x27;import_models&#x27;: False, &#x27;timeout&#x27;: 10, &#x27;plain&#x27;: False, &#x27;nobanner&#x27;: False}&gt;</div></td></tr><tr><td style="font-weight:bold;vertical-align:top;">db_sessions</td><td style="vertical-align:top;">:</td><td><div>set([])</div></td></tr><tr><td style="font-weight:bold;vertical-align:top;">debugging</td><td style="vertical-align:top;">:</td><td><div>False</div></td></tr><tr><td style="font-weight:bold;vertical-align:top;">gluon_parent</td><td style="vertical-align:top;">:</td><td><div>C:\\Users\\user\\Documents\\universidad\\desarrollo de software\\web2py</div></td></tr><tr><td style="font-weight:bold;vertical-align:top;">is_jython</td><td style="vertical-align:top;">:</td><td><div>False</div></td></tr><tr><td style="font-weight:bold;vertical-align:top;">is_pypy</td><td style="vertical-align:top;">:</td><td><div>False</div></td></tr><tr><td style="font-weight:bold;vertical-align:top;">is_source</td><td style="vertical-align:top;">:</td><td><div>False</div></td></tr><tr><td style="font-weight:bold;vertical-align:top;">local_hosts</td><td style="vertical-align:top;">:</td><td><div><table><tr><td><div>fe80::548d:31a:7304:a982%31</div></td></tr><tr><td><div>2001:0:9d38:953c:3c93:8ff:3f57:fef7</div></td></tr><tr><td><div>fe80::f43e:57be:b8fd:2bb0%30</div></td></tr><tr><td><div>192.168.75.1</div></td></tr><tr><td><div>2620:9b::190c:282d</div></td></tr><tr><td><div>::ffff:127.0.0.1</div></td></tr><tr><td><div>::1</div></td></tr><tr><td><div>fe80::1146:83f2:5ef1:25a8%27</div></td></tr><tr><td><div>Uriel</div></td></tr><tr><td><div>fe80::3c93:8ff:3f57:fef7%26</div></td></tr><tr><td><div>192.168.1.8</div></td></tr><tr><td><div>127.0.0.1</div></td></tr><tr><td><div>192.168.56.1</div></td></tr></table></div></td></tr><tr><td style="font-weight:bold;vertical-align:top;">web2py_version</td><td style="vertical-align:top;">:</td><td><div>2.14.6-stable+timestamp.2016.05.10.00.21.47</div></td></tr></table></div></td></tr><tr><td style="font-weight:bold;vertical-align:top;">is_https</td><td style="vertical-align:top;">:</td><td><div>False</div></td></tr><tr><td style="font-weight:bold;vertical-align:top;">is_local</td><td style="vertical-align:top;">:</td><td><div>True</div></td></tr><tr><td style="font-weight:bold;vertical-align:top;">is_restful</td><td style="vertical-align:top;">:</td><td><div>True</div></td></tr><tr><td style="font-weight:bold;vertical-align:top;">is_scheduler</td><td style="vertical-align:top;">:</td><td><div>False</div></td></tr><tr><td style="font-weight:bold;vertical-align:top;">is_shell</td><td style="vertical-align:top;">:</td><td><div>False</div></td></tr><tr><td style="font-weight:bold;vertical-align:top;">now</td><td style="vertical-align:top;">:</td><td><div>datetime.datetime(2017, 5, 20, 21, 24, 16, 967000)</div></td></tr><tr><td style="font-weight:bold;vertical-align:top;">raw_args</td><td style="vertical-align:top;">:</td><td><div></div></td></tr><tr><td style="font-weight:bold;vertical-align:top;">raw_extension</td><td style="vertical-align:top;">:</td><td><div>None</div></td></tr><tr><td style="font-weight:bold;vertical-align:top;">url</td><td style="vertical-align:top;">:</td><td><div>/Virtualizacion/default/api_user</div></td></tr><tr><td style="font-weight:bold;vertical-align:top;">utcnow</td><td style="vertical-align:top;">:</td><td><div>datetime.datetime(2017, 5, 21, 1, 24, 16, 967000)</div></td></tr><tr><td style="font-weight:bold;vertical-align:top;">wsgi</td><td style="vertical-align:top;">:</td><td><div>&lt;gluon.main.LazyWSGI object at 0x0A0D7270&gt;</div></td></tr></table></div>'
tRp58
sS'frames'
p59
(lp60
(dp61
S'file'
p62
S'C:\\Users\\user\\Documents\\universidad\\desarrollo de software\\web2py\\gluon\\restricted.py'
p63
sS'dump'
p64
(dp65
S'environment'
p66
S"{'A': <class 'gluon.html.A'>, 'ANY_OF': <class 'gluon.validators.ANY_OF'>, 'ASSIGNJS': <function ASSIGNJS>, 'AppConfig': <function AppConfig>, 'Auth': <class 'gluon.tools.Auth'>, 'B': <class 'gluon.html.B'>, 'BEAUTIFY': <class 'gluon.html.BEAUTIFY'>, 'BODY': <class 'gluon.html.BODY'>, 'BR': <class 'gluon.html.BR'>, 'BUTTON': <class 'gluon.html.BUTTON'>, ...}"
p67
sS'ccode'
p68
S'<code object <module> at 095711D0, file "C:\\User...s\\Virtualizacion\\controllers/default.py", line 4>'
p69
ssS'lnum'
p70
I227
sS'lines'
p71
(dp72
I224
S'            ccode = code'
p73
sI225
S'        else:'
p74
sI226
S'            ccode = compile2(code, layer)'
p75
sI227
S'        exec ccode in environment'
p76
sI228
S'    except HTTP:'
p77
sI229
S'        raise'
p78
sI230
S'    except RestrictedError:'
p79
sI231
S'        # do not encapsulate (obfuscate) the original RestrictedError'
p80
sI222
S'    try:'
p81
sI223
S'        if isinstance(code, types.CodeType):'
p82
ssS'call'
p83
S"(code='# -*- coding: utf-8 -*-\\n### required - do no del...ELETE)\\nresponse._vars=response._caller(api_user)\\n', environment={'A': <class 'gluon.html.A'>, 'ANY_OF': <class 'gluon.validators.ANY_OF'>, 'ASSIGNJS': <function ASSIGNJS>, 'AppConfig': <function AppConfig>, 'Auth': <class 'gluon.tools.Auth'>, 'B': <class 'gluon.html.B'>, 'BEAUTIFY': <class 'gluon.html.BEAUTIFY'>, 'BODY': <class 'gluon.html.BODY'>, 'BR': <class 'gluon.html.BR'>, 'BUTTON': <class 'gluon.html.BUTTON'>, ...}, layer=r'C:\\Users\\user\\Documents\\universidad\\desarrollo d...pplications\\Virtualizacion\\controllers/default.py')"
p84
sS'func'
p85
S'restricted'
p86
sa(dp87
g62
S'C:\\Users\\user\\Documents\\universidad\\desarrollo de software\\web2py\\applications\\Virtualizacion\\controllers\\default.py'
p88
sg64
(dp89
sg70
I413
sg71
(dp90
I403
S"    response.view = 'generic.json'"
p91
sI404
S''
sI405
S'    def GET(*args,**vars):'
p92
sI406
S"        #patterns = '/auth_user/id/{auth_user.id}'"
p93
sI407
S'        usuarios = db(db.auth_user).select()'
p94
sI408
S''
sI409
S'        return dict(usuarios=usuarios)'
p95
sI410
S''
sI411
S''
sI412
S'    return dict(GET=GET, POST=POST, PUT=PUT, DELETE=DELETE)'
p96
ssg83
S'()'
p97
sg85
S'<module>'
p98
sa(dp99
g62
S'C:\\Users\\user\\Documents\\universidad\\desarrollo de software\\web2py\\gluon\\globals.py'
p100
sg64
(dp101
S'self'
p102
S'undefined'
p103
sS'f'
S'<function api_user>'
p104
ssg70
I417
sg71
(dp105
I416
S'        self._vars = None'
p106
sI417
S'        self._caller = lambda f: f()'
p107
sI418
S'        self._view_environment = None'
p108
sI419
S'        self._custom_commit = None'
p109
sI420
S'        self._custom_rollback = None'
p110
sI421
S"        self.generic_patterns = ['*']"
p111
sI412
S"        self.flash = ''            # used by the default view layout"
p112
sI413
S'        self.meta = Storage()      # used by web2py_ajax.html'
p113
sI414
S'        self.menu = []             # used by the default view layout'
p114
sI415
S'        self.files = []            # used by web2py_ajax.html'
p115
ssg83
S'(f=<function api_user>)'
p116
sg85
S'<lambda>'
p117
sa(dp118
g62
S'C:\\Users\\user\\Documents\\universidad\\desarrollo de software\\web2py\\gluon\\globals.py'
p119
sg64
(dp120
S'rest_action'
p121
g103
sS'builtinNone'
p122
S'None'
p123
sS'_action'
p124
S'<function api_user>'
p125
sS'method'
p126
S"'GET'"
p127
sS').get'
p128
g103
ssg70
I375
sg71
(dp129
I370
S'                method = env.request_method'
p130
sI371
S"                if len(request.args) and '.' in request.args[-1]:"
p131
sI372
S"                    request.args[-1], _, request.extension = request.args[-1].rpartition('.')"
p132
sI373
S"                    current.response.headers['Content-Type'] = \\"
p133
sI374
S"                        contenttype('.' + request.extension.lower())"
p134
sI375
S'                rest_action = _action().get(method, None)'
p135
sI376
S'                if not (rest_action and method == method.upper()'
p136
sI377
S'                        and callable(rest_action)):'
p137
sI378
S'                    raise HTTP(405, "method not allowed")'
p138
sI379
S'                try:'
p139
ssg83
S'(_action=<function api_user>, *a=(), **b={})'
p140
sg85
S'f'
sa(dp141
g62
S'C:\\Users\\user\\Documents\\universidad\\desarrollo de software\\web2py\\applications\\Virtualizacion\\controllers\\default.py'
p142
sg64
(dp143
sg70
I412
sg71
(dp144
I403
S"    response.view = 'generic.json'"
p145
sI404
S''
sI405
S'    def GET(*args,**vars):'
p146
sI406
S"        #patterns = '/auth_user/id/{auth_user.id}'"
p147
sI407
S'        usuarios = db(db.auth_user).select()'
p148
sI408
S''
sI409
S'        return dict(usuarios=usuarios)'
p149
sI410
S''
sI411
S''
sI412
S'    return dict(GET=GET, POST=POST, PUT=PUT, DELETE=DELETE)'
p150
ssg83
S'()'
p151
sg85
S'api_user'
p152
sasS'pyver'
p153
S'Python 2.7.9: C:\\Users\\user\\Documents\\universidad\\desarrollo de software\\web2py\\web2py.exe (prefix: C:\\Python27)'
p154
sS'session'
p155
g57
(S's\x90\n\x00\x00<div><table><tr><td style="font-weight:bold;vertical-align:top;">auth</td><td style="vertical-align:top;">:</td><td><div><table><tr><td style="font-weight:bold;vertical-align:top;">expiration</td><td style="vertical-align:top;">:</td><td><div>3600</div></td></tr><tr><td style="font-weight:bold;vertical-align:top;">hmac_key</td><td style="vertical-align:top;">:</td><td><div>30a8ad22-3686-4402-a9f4-ff9f23c5752a</div></td></tr><tr><td style="font-weight:bold;vertical-align:top;">last_visit</td><td style="vertical-align:top;">:</td><td><div>datetime.datetime(2017, 5, 20, 21, 24, 16, 967000)</div></td></tr><tr><td style="font-weight:bold;vertical-align:top;">remember_me</td><td style="vertical-align:top;">:</td><td><div>False</div></td></tr><tr><td style="font-weight:bold;vertical-align:top;">user</td><td style="vertical-align:top;">:</td><td><div><table><tr><td style="font-weight:bold;vertical-align:top;">email</td><td style="vertical-align:top;">:</td><td><div>yolo@gmail.com</div></td></tr><tr><td style="font-weight:bold;vertical-align:top;">f_tipo_usuario</td><td style="vertical-align:top;">:</td><td><div>None</div></td></tr><tr><td style="font-weight:bold;vertical-align:top;">first_name</td><td style="vertical-align:top;">:</td><td><div>yolo</div></td></tr><tr><td style="font-weight:bold;vertical-align:top;">id</td><td style="vertical-align:top;">:</td><td><div>17L</div></td></tr><tr><td style="font-weight:bold;vertical-align:top;">last_name</td><td style="vertical-align:top;">:</td><td><div>yolo</div></td></tr><tr><td style="font-weight:bold;vertical-align:top;">registration_id</td><td style="vertical-align:top;">:</td><td><div></div></td></tr><tr><td style="font-weight:bold;vertical-align:top;">registration_key</td><td style="vertical-align:top;">:</td><td><div></div></td></tr><tr><td style="font-weight:bold;vertical-align:top;">reset_password_key</td><td style="vertical-align:top;">:</td><td><div></div></td></tr></table></div></td></tr><tr><td style="font-weight:bold;vertical-align:top;">user_groups</td><td style="vertical-align:top;">:</td><td><div><table><tr><td style="font-weight:bold;vertical-align:top;">3</td><td style="vertical-align:top;">:</td><td><div>user_17</div></td></tr></table></div></td></tr></table></div></td></tr><tr><td style="font-weight:bold;vertical-align:top;">flash</td><td style="vertical-align:top;">:</td><td><div>None</div></td></tr><tr><td style="font-weight:bold;vertical-align:top;">last_orderby</td><td style="vertical-align:top;">:</td><td><div>None</div></td></tr><tr><td style="font-weight:bold;vertical-align:top;">last_query</td><td style="vertical-align:top;">:</td><td><div>db.auth_user.id&gt;0</div></td></tr></table></div>'
tRp156
sS'etype'
p157
S"<type 'exceptions.NameError'>"
p158
sS'date'
p159
S'Sat May 20 21:24:17 2017'
p160
sS'response'
p161
g57
(S'sn#\x00\x00<div><table><tr><td style="font-weight:bold;vertical-align:top;">body</td><td style="vertical-align:top;">:</td><td><div>&lt;cStringIO.StringO object at 0x09F46E40&gt;</div></td></tr><tr><td style="font-weight:bold;vertical-align:top;">cookies</td><td style="vertical-align:top;">:</td><td><div><table><tr><td style="font-weight:bold;vertical-align:top;">session_id_virtualizacion</td><td style="vertical-align:top;">:</td><td><div>127.0.0.1-1006cff3-1b30-42ca-af21-d11d3d534dac<table><tr><td style="font-weight:bold;vertical-align:top;">comment</td><td style="vertical-align:top;">:</td><td><div></div></td></tr><tr><td style="font-weight:bold;vertical-align:top;">domain</td><td style="vertical-align:top;">:</td><td><div></div></td></tr><tr><td style="font-weight:bold;vertical-align:top;">expires</td><td style="vertical-align:top;">:</td><td><div></div></td></tr><tr><td style="font-weight:bold;vertical-align:top;">httponly</td><td style="vertical-align:top;">:</td><td><div></div></td></tr><tr><td style="font-weight:bold;vertical-align:top;">max-age</td><td style="vertical-align:top;">:</td><td><div></div></td></tr><tr><td style="font-weight:bold;vertical-align:top;">path</td><td style="vertical-align:top;">:</td><td><div>/</div></td></tr><tr><td style="font-weight:bold;vertical-align:top;">secure</td><td style="vertical-align:top;">:</td><td><div></div></td></tr><tr><td style="font-weight:bold;vertical-align:top;">version</td><td style="vertical-align:top;">:</td><td><div></div></td></tr></table></div></td></tr></table></div></td></tr><tr><td style="font-weight:bold;vertical-align:top;">delimiters</td><td style="vertical-align:top;">:</td><td><div><table><tr><td><div>{{</div></td></tr><tr><td><div>}}</div></td></tr></table></div></td></tr><tr><td style="font-weight:bold;vertical-align:top;">files</td><td style="vertical-align:top;">:</td><td><div><table></table></div></td></tr><tr><td style="font-weight:bold;vertical-align:top;">flash</td><td style="vertical-align:top;">:</td><td><div></div></td></tr><tr><td style="font-weight:bold;vertical-align:top;">form_label_separator</td><td style="vertical-align:top;">:</td><td><div></div></td></tr><tr><td style="font-weight:bold;vertical-align:top;">formstyle</td><td style="vertical-align:top;">:</td><td><div>bootstrap3_inline</div></td></tr><tr><td style="font-weight:bold;vertical-align:top;">generic_patterns</td><td style="vertical-align:top;">:</td><td><div><table><tr><td><div>*</div></td></tr></table></div></td></tr><tr><td style="font-weight:bold;vertical-align:top;">headers</td><td style="vertical-align:top;">:</td><td><div><table><tr><td style="font-weight:bold;vertical-align:top;">X-Powered-By</td><td style="vertical-align:top;">:</td><td><div>web2py</div></td></tr></table></div></td></tr><tr><td style="font-weight:bold;vertical-align:top;">menu</td><td style="vertical-align:top;">:</td><td><div><table><tr><td><div><table><tr><td><div>\xc3\x8dndice</div></td></tr><tr><td><div>False</div></td></tr><tr><td><div>/Virtualizacion/default/index</div></td></tr><tr><td><div><table></table></div></td></tr></table></div></td></tr><tr><td><div><table><tr><td><div>User</div></td></tr><tr><td><div>False</div></td></tr><tr><td><div>/Virtualizacion/default/user_manage</div></td></tr><tr><td><div><table></table></div></td></tr></table></div></td></tr><tr><td><div><table><tr><td><div>Profesor</div></td></tr><tr><td><div>False</div></td></tr><tr><td><div>/Virtualizacion/default/profesor</div></td></tr><tr><td><div><table></table></div></td></tr></table></div></td></tr><tr><td><div><table><tr><td><div>Disenador</div></td></tr><tr><td><div>False</div></td></tr><tr><td><div>/Virtualizacion/default/disenador</div></td></tr><tr><td><div><table></table></div></td></tr></table></div></td></tr><tr><td><div><table><tr><td><div>Course</div></td></tr><tr><td><div>False</div></td></tr><tr><td><div>/Virtualizacion/default/course_manage</div></td></tr><tr><td><div><table></table></div></td></tr></table></div></td></tr><tr><td><div><table><tr><td><div>Recurso</div></td></tr><tr><td><div>False</div></td></tr><tr><td><div>/Virtualizacion/default/recurso</div></td></tr><tr><td><div><table></table></div></td></tr></table></div></td></tr><tr><td><div><table><tr><td><div>Program</div></td></tr><tr><td><div>False</div></td></tr><tr><td><div>/Virtualizacion/default/program_manage</div></td></tr><tr><td><div><table></table></div></td></tr></table></div></td></tr><tr><td><div><table><tr><td><div>Has Course</div></td></tr><tr><td><div>False</div></td></tr><tr><td><div>/Virtualizacion/default/has_course_manage</div></td></tr><tr><td><div><table></table></div></td></tr></table></div></td></tr><tr><td><div><table><tr><td><div>Register User</div></td></tr><tr><td><div>False</div></td></tr><tr><td><div>/Virtualizacion/default/register_user</div></td></tr><tr><td><div><table></table></div></td></tr></table></div></td></tr><tr><td><div><table><tr><td><div>Dashboard</div></td></tr><tr><td><div>False</div></td></tr><tr><td><div>/Virtualizacion/default/dashboard</div></td></tr><tr><td><div><table></table></div></td></tr></table></div></td></tr></table></div></td></tr><tr><td style="font-weight:bold;vertical-align:top;">meta</td><td style="vertical-align:top;">:</td><td><div><table><tr><td style="font-weight:bold;vertical-align:top;">author</td><td style="vertical-align:top;">:</td><td><div>Aminosoft &lt;aminosoft@gmail.com&gt;</div></td></tr><tr><td style="font-weight:bold;vertical-align:top;">description</td><td style="vertical-align:top;">:</td><td><div></div></td></tr><tr><td style="font-weight:bold;vertical-align:top;">keywords</td><td style="vertical-align:top;">:</td><td><div></div></td></tr></table></div></td></tr><tr><td style="font-weight:bold;vertical-align:top;">models_to_run</td><td style="vertical-align:top;">:</td><td><div><table><tr><td><div>^\\w+\\.py$</div></td></tr><tr><td><div>^default/\\w+\\.py$</div></td></tr><tr><td><div>^default/api_user/\\w+\\.py$</div></td></tr></table></div></td></tr><tr><td style="font-weight:bold;vertical-align:top;">postprocessing</td><td style="vertical-align:top;">:</td><td><div><table></table></div></td></tr><tr><td style="font-weight:bold;vertical-align:top;">session_client</td><td style="vertical-align:top;">:</td><td><div>127.0.0.1</div></td></tr><tr><td style="font-weight:bold;vertical-align:top;">session_cookie_compression_level</td><td style="vertical-align:top;">:</td><td><div>None</div></td></tr><tr><td style="font-weight:bold;vertical-align:top;">session_cookie_expires</td><td style="vertical-align:top;">:</td><td><div>None</div></td></tr><tr><td style="font-weight:bold;vertical-align:top;">session_data_name</td><td style="vertical-align:top;">:</td><td><div>session_data_virtualizacion</div></td></tr><tr><td style="font-weight:bold;vertical-align:top;">session_file</td><td style="vertical-align:top;">:</td><td><div>&lt;open file &#x27;C:\\\\Users\\\\user\\\\Documents\\\\universidad\\\\desarrollo de software\\\\web2py\\\\applications\\\\Virtualizacion\\\\sessions\\\\172\\\\1e3\\\\127.0.0.1-1006cff3-1b30-42ca-af21-d11d3d534dac&#x27;, mode &#x27;rb+&#x27; at 0x03BFB808&gt;</div></td></tr><tr><td style="font-weight:bold;vertical-align:top;">session_filename</td><td style="vertical-align:top;">:</td><td><div>C:\\Users\\user\\Documents\\universidad\\desarrollo de software\\web2py\\applications\\Virtualizacion\\sessions\\127.0.0.1-1006cff3-1b30-42ca-af21-d11d3d534dac</div></td></tr><tr><td style="font-weight:bold;vertical-align:top;">session_hash</td><td style="vertical-align:top;">:</td><td><div>00c1885ec419fd5e22e4a43f9cee254c</div></td></tr><tr><td style="font-weight:bold;vertical-align:top;">session_id</td><td style="vertical-align:top;">:</td><td><div>127.0.0.1-1006cff3-1b30-42ca-af21-d11d3d534dac</div></td></tr><tr><td style="font-weight:bold;vertical-align:top;">session_id_name</td><td style="vertical-align:top;">:</td><td><div>session_id_virtualizacion</div></td></tr><tr><td style="font-weight:bold;vertical-align:top;">session_locked</td><td style="vertical-align:top;">:</td><td><div>True</div></td></tr><tr><td style="font-weight:bold;vertical-align:top;">session_masterapp</td><td style="vertical-align:top;">:</td><td><div>Virtualizacion</div></td></tr><tr><td style="font-weight:bold;vertical-align:top;">session_new</td><td style="vertical-align:top;">:</td><td><div>False</div></td></tr><tr><td style="font-weight:bold;vertical-align:top;">session_storage_type</td><td style="vertical-align:top;">:</td><td><div>file</div></td></tr><tr><td style="font-weight:bold;vertical-align:top;">status</td><td style="vertical-align:top;">:</td><td><div>200</div></td></tr><tr><td style="font-weight:bold;vertical-align:top;">subtitle</td><td style="vertical-align:top;">:</td><td><div>powered by web2py</div></td></tr><tr><td style="font-weight:bold;vertical-align:top;">title</td><td style="vertical-align:top;">:</td><td><div>Gestor de virtualizacion</div></td></tr><tr><td style="font-weight:bold;vertical-align:top;">view</td><td style="vertical-align:top;">:</td><td><div>generic.json</div></td></tr></table></div>'
tRp162
sS'locals'
p163
(dp164
S'GET'
p165
S'<function GET>'
p166
sssS'traceback'
p167
S'Traceback (most recent call last):\n  File "C:\\Users\\user\\Documents\\universidad\\desarrollo de software\\web2py\\gluon\\restricted.py", line 227, in restricted\n    exec ccode in environment\n  File "C:\\Users\\user\\Documents\\universidad\\desarrollo de software\\web2py\\applications\\Virtualizacion\\controllers/default.py", line 413, in <module>\n  File "C:\\Users\\user\\Documents\\universidad\\desarrollo de software\\web2py\\gluon\\globals.py", line 417, in <lambda>\n    self._caller = lambda f: f()\n  File "C:\\Users\\user\\Documents\\universidad\\desarrollo de software\\web2py\\gluon\\globals.py", line 375, in f\n    rest_action = _action().get(method, None)\n  File "C:\\Users\\user\\Documents\\universidad\\desarrollo de software\\web2py\\applications\\Virtualizacion\\controllers/default.py", line 412, in api_user\n    return dict(GET=GET, POST=POST, PUT=PUT, DELETE=DELETE)\nNameError: global name \'POST\' is not defined\n'
p168
s.