(dp1
S'output'
p2
S"<type 'exceptions.Exception'> Validation error, field:f_name True"
p3
sS'layer'
p4
S'C:\\Users\\Dell}\\Documents\\Leen Argon\\Universidad (UCV)\\7mo Semestre\\Lab. Desarrollo Software\\web2py_sprint2\\applications\\Virtualizacion\\controllers/default.py'
p5
sS'code'
p6
S'# -*- coding: utf-8 -*-\n### required - do no delete\n# Some imports\nfrom time import gmtime, strftime\n\ndef user(): return dict(form=auth())\ndef download(): return response.download(request,db)\ndef call(): return service()\n### end requires\n@auth.requires_login()\ndef index():\n    res = db(db.t_program).select()\n    n = 0\n    res_n = 0\n    for row in res:\n        res_n=res_n+1\n    notificacion = db(db.t_notification.f_usuario_b == auth.user.id).select()\n    for row in notificacion:\n        n=n+1\n    return dict(query=res, length_query = res_n, notification = notificacion, length_notification = n)\n\ndef error():\n    return dict()\n\n@auth.requires_login()\ndef insert():\n    user_name, name, last_name, user_type, email, password = request.post_vars[\'user_name\'],request.post_vars[\'name\'], request.post_vars[\'last_name\'], request.post_vars[\'user_type\'], request.post_vars[\'email\'], request.post_vars[\'password\']\n    db.t_usuario.insert(\n            f_username=user_name,\n            f_first_name=name,\n            f_last_name=last_name,           \n            f_email=email,\n            f_password=db.auth_user.password.requires[0](password)[0],\n            f_type_user=user_type,\n            f_notification="0"\n        )\n    db.auth_user.insert(\n            first_name=name,\n            last_name=last_name,           \n            email=email,\n            password=db.auth_user.password.requires[0](password)[0],           \n        )\n    return dict() \n\n@auth.requires_login()\ndef registrar_usuario():\n    return dict()\n\n@auth.requires_login()\ndef user_manage():\n    return dict()\n\n@auth.requires_login()\ndef course_manage():\n    form = SQLFORM.smartgrid(db.t_course,onupdate=auth.archive)\n    return locals()\n\n@auth.requires_login()\ndef has_course_manage():\n    form = SQLFORM.smartgrid(db.t_has_course,onupdate=auth.archive)\n    return locals()\n\n@auth.requires_login()\ndef register_user():\n    return dict()\n\n@auth.requires_login()\ndef dashboard():\n    return dict()\n\n@auth.requires_login()\ndef recurso():\n    #form =db().select(db.t_resource.f_name, db.t_resource.f_code_course)\n    form = SQLFORM(\n        db.t_resource,\n        fields=[\'f_name\',\'f_code_course\',\'f_responsable\',\'f_type\',\'f_format\',\'f_description\',\'f_is_planilla\'],\n        deletable=True)\n    if form.process().accepted:\n        response.flash = \'form accepted\'\n    elif form.errors:\n        response.flash = \'form has errors\'\n    return dict(form=form)\n\n@auth.requires_login()\ndef display_planillas():\n    form = SQLFORM.smartgrid(db.t_resource, constraints = dict(t_resource = db.t_resource.f_is_planilla == True),\n        onupdate=auth.archive,\n        deletable=False,\n        editable=False,\n        searchable=False,\n        create=False,\n        csv=False,\n        showbuttontext=False)\n    return locals()\n\n\n\n@auth.requires_login()\ndef display_resources():\n    query = db.t_resource.f_is_planilla == False\n    form = SQLFORM.smartgrid(\n        db.t_resource,\n        constraints = dict(t_resource = query),\n        onupdate=auth.archive,\n        deletable=False,\n        editable=False,\n        searchable=False,\n        create=False,\n        csv=False,\n        showbuttontext=False\n        )\n    return locals()\n\n@auth.requires_login()\ndef verificar_planillas():\n    id_resource = request.post_vars[\'id_resource\']\n    row = db(db.t_resource.id == id_resource).select().first()\n    row.update_record(f_is_verificado=True)\n    redirect(URL(\'display_planillas\'))  \n    #return locals()\n\n@auth.requires_login()\ndef verificar_resources():\n    id_resource = request.post_vars[\'id_resource\']\n    row = db(db.t_resource.id == id_resource).select().first()\n    row.update_record(f_is_verificado=True)\n    redirect(URL(\'display_resources\'))  \n    #return locals()\n\n\ndef display_file_form():\n    record = db.t_file(request.args(0))\n    form = SQLFORM(db.t_file, record, deletable=True,\n                  upload=URL(\'download\'))\n\n    if form.process().accepted:\n       response.flash = \'form accepted\'\n    elif form.errors:\n       response.flash = \'form has errors\'\n    return dict(form=form)\n\ndef display_files():\n    form = SQLFORM.smartgrid(db.t_file,onupdate=auth.archive)\n    return locals()\n    \n@auth.requires_login()\ndef program_manage():\n    return dict()\n\n@auth.requires_login()\ndef profesor():\n    return dict()\n\n@auth.requires_login()\ndef disenador():\n    return dict()\n\n@auth.requires_login()\ndef program_creator():\n    program_type = request.post_vars[\'program_type\']\n    data = {\'program_type\': program_type}\n\n    # Create Database Entries\n    if (program_type == \'carreraLarga\'):\n        pass\n    elif (program_type == \'carreraCorta\'):\n        pass\n    elif (program_type == \'posgrado\'):\n        pass\n    elif (program_type == \'diplomado\'):\n        pass\n    elif (program_type == \'seminario\'):\n        pass\n    elif (program_type == \'curso\'):\n        pass\n    elif (program_type == \'programa\'):\n        pass\n\n    return data\n\n\n@auth.requires_login()\ndef program_creator_courses():\n    program_type = request.get_vars[\'type\']\n    duration = int(request.post_vars[\'years\'])\n    modality = request.post_vars[\'modality\']\n    name = request.post_vars[\'name\']\n    code = request.post_vars[\'code\']\n\n    # Getting size\n    size = 0\n    if (modality==\'trimestral\'):\n        size = 3\n    elif (modality==\'semestral\'):\n        size = 6\n    elif (modality==\'anual\'):\n        size = 12\n\n    # Create Database Entries\n    if (program_type in (\'carreraLarga\', \'carreraCorta\', \'posgrado\')):\n        # Nivel de anidacion I\n        level_one_id = db.t_program.insert(\n            f_name = name,\n            f_modality = modality,\n            f_code = code,\n            f_duration = duration\n        )\n\n        complete_duration = int(duration)*12/size\n\n        programsIDs = list()\n\n        for i in range(0, complete_duration):\n            level_two_id = db.t_program.insert(\n                f_name = name + \' - \' + modality + \' - \' + str(i),\n                f_modality = None,\n                f_code = code,\n                f_duration = size\n            )\n\n            db.t_has_program.insert(\n                f_program_a = level_one_id,\n                f_program_b = level_two_id\n            )\n\n            programsIDs.append(level_two_id)\n    elif (program_type in (\'diplomado\', \'seminario\', \'curso\') ):\n        complete_duration = int(duration)*12/size\n\n        # Nivel de anidacion 0 \n        level_one_id = db.t_program.insert(\n            f_name = name,\n            f_modality = modality,\n            f_code = code,\n            f_duration = duration\n        )\n        programsIDs.append(level_one_id)\n    elif (program_type == \'programa\'):\n        # Nivel de anidacion variable\n        complete_duration = int(duration)*12/size\n        pass\n\n    return {\'duration\': complete_duration, \'size\': size, \'modality\' : modality, \'programs\': programsIDs}\n\n@auth.requires_login()\ndef save_course():\n    program = request.post_vars[\'program\']\n    course_code = request.post_vars[\'course_code\']\n    course_name = request.post_vars[\'course_name\']\n    course_responsible = request.post_vars[\'course_responsible\']\n    message = \'\'\n    status = False\n    \n    # DB Inserts\n    course = db.t_course.insert(\n        f_code = course_code,\n        f_name = course_name,\n    )\n\n    has_course = db.t_has_course.insert(\n        f_program_has = program,\n        f_course_has = course\n    );\n\n    status = has_course != None and course != None\n\n    data = {\'course\': course, \'has_course\': has_course, \'course_name\': course_name, \'status\': status}\n    return data\n\n@auth.requires_login()\ndef get_user_names():\n    usernames = db(db.auth_user).select(db.auth_user.first_name, db.auth_user.last_name)\n    names = \'\';\n    for name in usernames:\n        names = names + str(name[\'auth_user.first_name\']) + \' \' + str(name[\'auth_user.last_name\']) + \'|\'\n    data = {\'usernames\': names}\n    return data\n   \nresponse._vars=response._caller(recurso)\n'
p7
sS'snapshot'
p8
(dp9
S'exception'
p10
(dp11
S'__hash__'
p12
S"<method-wrapper '__hash__' of exceptions.Exception object>"
p13
sS'__setattr__'
p14
S"<method-wrapper '__setattr__' of exceptions.Exception object>"
p15
sS'__reduce_ex__'
p16
S'<built-in method __reduce_ex__ of exceptions.Exception object>'
p17
sS'__getslice__'
p18
S"<method-wrapper '__getslice__' of exceptions.Exception object>"
p19
sS'__getitem__'
p20
S"<method-wrapper '__getitem__' of exceptions.Exception object>"
p21
sS'__setstate__'
p22
S'<built-in method __setstate__ of exceptions.Exception object>'
p23
sS'__reduce__'
p24
S'<built-in method __reduce__ of exceptions.Exception object>'
p25
sS'__str__'
p26
S"<method-wrapper '__str__' of exceptions.Exception object>"
p27
sS'__format__'
p28
S'<built-in method __format__ of exceptions.Exception object>'
p29
sS'__getattribute__'
p30
S"<method-wrapper '__getattribute__' of exceptions.Exception object>"
p31
sS'__class__'
p32
S"<type 'exceptions.Exception'>"
p33
sS'__unicode__'
p34
S'<built-in method __unicode__ of exceptions.Exception object>'
p35
sS'__delattr__'
p36
S"<method-wrapper '__delattr__' of exceptions.Exception object>"
p37
sS'__subclasshook__'
p38
S'<built-in method __subclasshook__ of type object>'
p39
sS'__repr__'
p40
S"<method-wrapper '__repr__' of exceptions.Exception object>"
p41
sS'args'
p42
S"('Validation error, field:f_name True',)"
p43
sS'__dict__'
p44
S'{}'
p45
sS'__sizeof__'
p46
S'<built-in method __sizeof__ of exceptions.Exception object>'
p47
sS'__doc__'
p48
S"'Common base class for all non-exit exceptions.'"
p49
sS'__init__'
p50
S"<method-wrapper '__init__' of exceptions.Exception object>"
p51
sS'__new__'
p52
S'<built-in method __new__ of type object>'
p53
ssS'evalue'
p54
S'Validation error, field:f_name True'
p55
sS'request'
p56
cgluon.html
XML_unpickle
p57
(S's\xafj\x00\x00<div><table><tr><td style="font-weight:bold;vertical-align:top;">ajax</td><td style="vertical-align:top;">:</td><td><div>False</div></td></tr><tr><td style="font-weight:bold;vertical-align:top;">application</td><td style="vertical-align:top;">:</td><td><div>Virtualizacion</div></td></tr><tr><td style="font-weight:bold;vertical-align:top;">args</td><td style="vertical-align:top;">:</td><td><div><table></table></div></td></tr><tr><td style="font-weight:bold;vertical-align:top;">cid</td><td style="vertical-align:top;">:</td><td><div>None</div></td></tr><tr><td style="font-weight:bold;vertical-align:top;">client</td><td style="vertical-align:top;">:</td><td><div>127.0.0.1</div></td></tr><tr><td style="font-weight:bold;vertical-align:top;">controller</td><td style="vertical-align:top;">:</td><td><div>default</div></td></tr><tr><td style="font-weight:bold;vertical-align:top;">cookies</td><td style="vertical-align:top;">:</td><td><div><table><tr><td style="font-weight:bold;vertical-align:top;">session</td><td style="vertical-align:top;">:</td><td><div>eyJUaXBvIjoiQXV0b3IiLCJ1c2VybmFtZSI6ImxlZW5hcmdvbjIifQ.C78D6w.UcivMVZbksiWmf2agCsgr3LVERo<table><tr><td style="font-weight:bold;vertical-align:top;">comment</td><td style="vertical-align:top;">:</td><td><div></div></td></tr><tr><td style="font-weight:bold;vertical-align:top;">domain</td><td style="vertical-align:top;">:</td><td><div></div></td></tr><tr><td style="font-weight:bold;vertical-align:top;">expires</td><td style="vertical-align:top;">:</td><td><div></div></td></tr><tr><td style="font-weight:bold;vertical-align:top;">httponly</td><td style="vertical-align:top;">:</td><td><div></div></td></tr><tr><td style="font-weight:bold;vertical-align:top;">max-age</td><td style="vertical-align:top;">:</td><td><div></div></td></tr><tr><td style="font-weight:bold;vertical-align:top;">path</td><td style="vertical-align:top;">:</td><td><div></div></td></tr><tr><td style="font-weight:bold;vertical-align:top;">secure</td><td style="vertical-align:top;">:</td><td><div></div></td></tr><tr><td style="font-weight:bold;vertical-align:top;">version</td><td style="vertical-align:top;">:</td><td><div></div></td></tr></table></div></td></tr><tr><td style="font-weight:bold;vertical-align:top;">session_id_admin</td><td style="vertical-align:top;">:</td><td><div>127.0.0.1-276a905e-3690-40a6-bca6-851e3344e922<table><tr><td style="font-weight:bold;vertical-align:top;">comment</td><td style="vertical-align:top;">:</td><td><div></div></td></tr><tr><td style="font-weight:bold;vertical-align:top;">domain</td><td style="vertical-align:top;">:</td><td><div></div></td></tr><tr><td style="font-weight:bold;vertical-align:top;">expires</td><td style="vertical-align:top;">:</td><td><div></div></td></tr><tr><td style="font-weight:bold;vertical-align:top;">httponly</td><td style="vertical-align:top;">:</td><td><div></div></td></tr><tr><td style="font-weight:bold;vertical-align:top;">max-age</td><td style="vertical-align:top;">:</td><td><div></div></td></tr><tr><td style="font-weight:bold;vertical-align:top;">path</td><td style="vertical-align:top;">:</td><td><div></div></td></tr><tr><td style="font-weight:bold;vertical-align:top;">secure</td><td style="vertical-align:top;">:</td><td><div></div></td></tr><tr><td style="font-weight:bold;vertical-align:top;">version</td><td style="vertical-align:top;">:</td><td><div></div></td></tr></table></div></td></tr><tr><td style="font-weight:bold;vertical-align:top;">session_id_virtualizacion</td><td style="vertical-align:top;">:</td><td><div>127.0.0.1-f0072632-af2b-40b2-8b84-3e5f24e64ea4<table><tr><td style="font-weight:bold;vertical-align:top;">comment</td><td style="vertical-align:top;">:</td><td><div></div></td></tr><tr><td style="font-weight:bold;vertical-align:top;">domain</td><td style="vertical-align:top;">:</td><td><div></div></td></tr><tr><td style="font-weight:bold;vertical-align:top;">expires</td><td style="vertical-align:top;">:</td><td><div></div></td></tr><tr><td style="font-weight:bold;vertical-align:top;">httponly</td><td style="vertical-align:top;">:</td><td><div></div></td></tr><tr><td style="font-weight:bold;vertical-align:top;">max-age</td><td style="vertical-align:top;">:</td><td><div></div></td></tr><tr><td style="font-weight:bold;vertical-align:top;">path</td><td style="vertical-align:top;">:</td><td><div></div></td></tr><tr><td style="font-weight:bold;vertical-align:top;">secure</td><td style="vertical-align:top;">:</td><td><div></div></td></tr><tr><td style="font-weight:bold;vertical-align:top;">version</td><td style="vertical-align:top;">:</td><td><div></div></td></tr></table></div></td></tr></table></div></td></tr><tr><td style="font-weight:bold;vertical-align:top;">env</td><td style="vertical-align:top;">:</td><td><div><table><tr><td style="font-weight:bold;vertical-align:top;">CONTENT_LENGTH</td><td style="vertical-align:top;">:</td><td><div>869</div></td></tr><tr><td style="font-weight:bold;vertical-align:top;">CONTENT_TYPE</td><td style="vertical-align:top;">:</td><td><div>multipart/form-data; boundary=----WebKitFormBoundaryT8IZKqP7tr7n9PA3</div></td></tr><tr><td style="font-weight:bold;vertical-align:top;">HTTP_ACCEPT</td><td style="vertical-align:top;">:</td><td><div>text/html,application/xhtml+xml,application/xml;q=0.9,image/webp,*/*;q=0.8</div></td></tr><tr><td style="font-weight:bold;vertical-align:top;">HTTP_ACCEPT_ENCODING</td><td style="vertical-align:top;">:</td><td><div>gzip, deflate, br</div></td></tr><tr><td style="font-weight:bold;vertical-align:top;">HTTP_ACCEPT_LANGUAGE</td><td style="vertical-align:top;">:</td><td><div>es-ES,es;q=0.8</div></td></tr><tr><td style="font-weight:bold;vertical-align:top;">HTTP_CACHE_CONTROL</td><td style="vertical-align:top;">:</td><td><div>max-age=0</div></td></tr><tr><td style="font-weight:bold;vertical-align:top;">HTTP_CONNECTION</td><td style="vertical-align:top;">:</td><td><div>keep-alive</div></td></tr><tr><td style="font-weight:bold;vertical-align:top;">HTTP_CONTENT_LENGTH</td><td style="vertical-align:top;">:</td><td><div>869</div></td></tr><tr><td style="font-weight:bold;vertical-align:top;">HTTP_CONTENT_TYPE</td><td style="vertical-align:top;">:</td><td><div>multipart/form-data; boundary=----WebKitFormBoundaryT8IZKqP7tr7n9PA3</div></td></tr><tr><td style="font-weight:bold;vertical-align:top;">HTTP_COOKIE</td><td style="vertical-align:top;">:</td><td><div>session=eyJUaXBvIjoiQXV0b3IiLCJ1c2VybmFtZSI6ImxlZW5hcmdvbjIifQ.C78D6w.UcivMVZbksiWmf2agCsgr3LVERo; session_id_admin=127.0.0.1-276a905e-3690-40a6-bca6-851e3344e922; session_id_virtualizacion=127.0.0.1-f0072632-af2b-40b2-8b84-3e5f24e64ea4</div></td></tr><tr><td style="font-weight:bold;vertical-align:top;">HTTP_DNT</td><td style="vertical-align:top;">:</td><td><div>1</div></td></tr><tr><td style="font-weight:bold;vertical-align:top;">HTTP_HOST</td><td style="vertical-align:top;">:</td><td><div>127.0.0.1:8000</div></td></tr><tr><td style="font-weight:bold;vertical-align:top;">HTTP_ORIGIN</td><td style="vertical-align:top;">:</td><td><div>http://127.0.0.1:8000</div></td></tr><tr><td style="font-weight:bold;vertical-align:top;">HTTP_REFERER</td><td style="vertical-align:top;">:</td><td><div>http://127.0.0.1:8000/Virtualizacion/default/recurso</div></td></tr><tr><td style="font-weight:bold;vertical-align:top;">HTTP_UPGRADE_INSECURE_REQUESTS</td><td style="vertical-align:top;">:</td><td><div>1</div></td></tr><tr><td style="font-weight:bold;vertical-align:top;">HTTP_USER_AGENT</td><td style="vertical-align:top;">:</td><td><div>Mozilla/5.0 (Windows NT 10.0; WOW64) AppleWebKit/537.36 (KHTML, like Gecko) Chrome/56.0.2924.87 Safari/537.36</div></td></tr><tr><td style="font-weight:bold;vertical-align:top;">PATH_INFO</td><td style="vertical-align:top;">:</td><td><div>/Virtualizacion/default/recurso</div></td></tr><tr><td style="font-weight:bold;vertical-align:top;">QUERY_STRING</td><td style="vertical-align:top;">:</td><td><div></div></td></tr><tr><td style="font-weight:bold;vertical-align:top;">REMOTE_ADDR</td><td style="vertical-align:top;">:</td><td><div>127.0.0.1</div></td></tr><tr><td style="font-weight:bold;vertical-align:top;">REMOTE_PORT</td><td style="vertical-align:top;">:</td><td><div>54684</div></td></tr><tr><td style="font-weight:bold;vertical-align:top;">REQUEST_METHOD</td><td style="vertical-align:top;">:</td><td><div>POST</div></td></tr><tr><td style="font-weight:bold;vertical-align:top;">SCRIPT_NAME</td><td style="vertical-align:top;">:</td><td><div></div></td></tr><tr><td style="font-weight:bold;vertical-align:top;">SERVER_NAME</td><td style="vertical-align:top;">:</td><td><div>Dell-PC</div></td></tr><tr><td style="font-weight:bold;vertical-align:top;">SERVER_PORT</td><td style="vertical-align:top;">:</td><td><div>8000</div></td></tr><tr><td style="font-weight:bold;vertical-align:top;">SERVER_PROTOCOL</td><td style="vertical-align:top;">:</td><td><div>HTTP/1.1</div></td></tr><tr><td style="font-weight:bold;vertical-align:top;">SERVER_SOFTWARE</td><td style="vertical-align:top;">:</td><td><div>Rocket 1.2.6</div></td></tr><tr><td style="font-weight:bold;vertical-align:top;">app_folders</td><td style="vertical-align:top;">:</td><td><div>set([&#x27;C:\\\\Users\\\\Dell}\\\\Documents\\\\Leen Argon\\\\Universidad (UCV)\\\\7mo Semestre\\\\Lab. Desarrollo Software\\\\web2py_sprint2\\\\applications\\\\welcome\\\\&#x27;, &#x27;C:\\\\Users\\\\Dell}\\\\Documents\\\\Leen Argon\\\\Universidad (UCV)\\\\7mo Semestre\\\\Lab. Desarrollo Software\\\\web2py_sprint2\\\\applications\\\\admin\\\\&#x27;, &#x27;C:\\\\Users\\\\Dell}\\\\Documents\\\\Leen Argon\\\\Universidad (UCV)\\\\7mo Semestre\\\\Lab. Desarrollo Software\\\\web2py_sprint2\\\\applications\\\\Virtualizacion\\\\&#x27;])</div></td></tr><tr><td style="font-weight:bold;vertical-align:top;">applications_parent</td><td style="vertical-align:top;">:</td><td><div>C:\\Users\\Dell}\\Documents\\Leen Argon\\Universidad (UCV)\\7mo Semestre\\Lab. Desarrollo Software\\web2py_sprint2</div></td></tr><tr><td style="font-weight:bold;vertical-align:top;">cmd_args</td><td style="vertical-align:top;">:</td><td><div><table></table></div></td></tr><tr><td style="font-weight:bold;vertical-align:top;">cmd_options</td><td style="vertical-align:top;">:</td><td><div>&lt;Values at 0x2d1ad78: {&#x27;verbose&#x27;: False, &#x27;ip&#x27;: &#x27;127.0.0.1&#x27;, &#x27;debuglevel&#x27;: 30, &#x27;with_scheduler&#x27;: False, &#x27;shutdown_timeout&#x27;: 5, &#x27;taskbar&#x27;: False, &#x27;with_coverage&#x27;: False, &#x27;pid_filename&#x27;: &#x27;httpserver.pid&#x27;, &#x27;maxthreads&#x27;: None, &#x27;softcron&#x27;: False, &#x27;server_name&#x27;: &#x27;Dell-PC&#x27;, &#x27;bpython&#x27;: False, &#x27;nogui&#x27;: False, &#x27;port&#x27;: 8000, &#x27;print_errors&#x27;: False, &#x27;extcron&#x27;: False, &#x27;runcron&#x27;: False, &#x27;run_system_tests&#x27;: False, &#x27;test&#x27;: None, &#x27;folder&#x27;: &#x27;C:\\\\Users\\\\Dell}\\\\Documents\\\\Leen Argon\\\\Universidad (UCV)\\\\7mo Semestre\\\\Lab. Desarrollo Software\\\\web2py_sprint2&#x27;, &#x27;config&#x27;: &#x27;&#x27;, &#x27;minthreads&#x27;: None, &#x27;shell&#x27;: None, &#x27;run&#x27;: &#x27;&#x27;, &#x27;log_filename&#x27;: &#x27;httpserver.log&#x27;, &#x27;profiler_dir&#x27;: None, &#x27;args&#x27;: [&#x27;&#x27;], &#x27;socket_timeout&#x27;: 5, &#x27;ssl_ca_certificate&#x27;: None, &#x27;scheduler&#x27;: None, &#x27;interfaces&#x27;: None, &#x27;ssl_private_key&#x27;: &#x27;&#x27;, &#x27;gae&#x27;: None, &#x27;password&#x27;: &#x27;******&#x27;, &#x27;request_queue_size&#x27;: 5, &#x27;ssl_certificate&#x27;: &#x27;&#x27;, &#x27;cronjob&#x27;: False, &#x27;numthreads&#x27;: None, &#x27;quiet&#x27;: False, &#x27;import_models&#x27;: False, &#x27;timeout&#x27;: 10, &#x27;plain&#x27;: False, &#x27;nobanner&#x27;: False}&gt;</div></td></tr><tr><td style="font-weight:bold;vertical-align:top;">content_length</td><td style="vertical-align:top;">:</td><td><div>869</div></td></tr><tr><td style="font-weight:bold;vertical-align:top;">content_type</td><td style="vertical-align:top;">:</td><td><div>multipart/form-data; boundary=----WebKitFormBoundaryT8IZKqP7tr7n9PA3</div></td></tr><tr><td style="font-weight:bold;vertical-align:top;">db_sessions</td><td style="vertical-align:top;">:</td><td><div>set([])</div></td></tr><tr><td style="font-weight:bold;vertical-align:top;">debugging</td><td style="vertical-align:top;">:</td><td><div>False</div></td></tr><tr><td style="font-weight:bold;vertical-align:top;">gluon_parent</td><td style="vertical-align:top;">:</td><td><div>C:\\Users\\Dell}\\Documents\\Leen Argon\\Universidad (UCV)\\7mo Semestre\\Lab. Desarrollo Software\\web2py_sprint2</div></td></tr><tr><td style="font-weight:bold;vertical-align:top;">http_accept</td><td style="vertical-align:top;">:</td><td><div>text/html,application/xhtml+xml,application/xml;q=0.9,image/webp,*/*;q=0.8</div></td></tr><tr><td style="font-weight:bold;vertical-align:top;">http_accept_encoding</td><td style="vertical-align:top;">:</td><td><div>gzip, deflate, br</div></td></tr><tr><td style="font-weight:bold;vertical-align:top;">http_accept_language</td><td style="vertical-align:top;">:</td><td><div>es-ES,es;q=0.8</div></td></tr><tr><td style="font-weight:bold;vertical-align:top;">http_cache_control</td><td style="vertical-align:top;">:</td><td><div>max-age=0</div></td></tr><tr><td style="font-weight:bold;vertical-align:top;">http_connection</td><td style="vertical-align:top;">:</td><td><div>keep-alive</div></td></tr><tr><td style="font-weight:bold;vertical-align:top;">http_content_length</td><td style="vertical-align:top;">:</td><td><div>869</div></td></tr><tr><td style="font-weight:bold;vertical-align:top;">http_content_type</td><td style="vertical-align:top;">:</td><td><div>multipart/form-data; boundary=----WebKitFormBoundaryT8IZKqP7tr7n9PA3</div></td></tr><tr><td style="font-weight:bold;vertical-align:top;">http_cookie</td><td style="vertical-align:top;">:</td><td><div>session=eyJUaXBvIjoiQXV0b3IiLCJ1c2VybmFtZSI6ImxlZW5hcmdvbjIifQ.C78D6w.UcivMVZbksiWmf2agCsgr3LVERo; session_id_admin=127.0.0.1-276a905e-3690-40a6-bca6-851e3344e922; session_id_virtualizacion=127.0.0.1-f0072632-af2b-40b2-8b84-3e5f24e64ea4</div></td></tr><tr><td style="font-weight:bold;vertical-align:top;">http_dnt</td><td style="vertical-align:top;">:</td><td><div>1</div></td></tr><tr><td style="font-weight:bold;vertical-align:top;">http_host</td><td style="vertical-align:top;">:</td><td><div>127.0.0.1:8000</div></td></tr><tr><td style="font-weight:bold;vertical-align:top;">http_origin</td><td style="vertical-align:top;">:</td><td><div>http://127.0.0.1:8000</div></td></tr><tr><td style="font-weight:bold;vertical-align:top;">http_referer</td><td style="vertical-align:top;">:</td><td><div>http://127.0.0.1:8000/Virtualizacion/default/recurso</div></td></tr><tr><td style="font-weight:bold;vertical-align:top;">http_upgrade_insecure_requests</td><td style="vertical-align:top;">:</td><td><div>1</div></td></tr><tr><td style="font-weight:bold;vertical-align:top;">http_user_agent</td><td style="vertical-align:top;">:</td><td><div>Mozilla/5.0 (Windows NT 10.0; WOW64) AppleWebKit/537.36 (KHTML, like Gecko) Chrome/56.0.2924.87 Safari/537.36</div></td></tr><tr><td style="font-weight:bold;vertical-align:top;">is_jython</td><td style="vertical-align:top;">:</td><td><div>False</div></td></tr><tr><td style="font-weight:bold;vertical-align:top;">is_pypy</td><td style="vertical-align:top;">:</td><td><div>False</div></td></tr><tr><td style="font-weight:bold;vertical-align:top;">is_source</td><td style="vertical-align:top;">:</td><td><div>False</div></td></tr><tr><td style="font-weight:bold;vertical-align:top;">local_hosts</td><td style="vertical-align:top;">:</td><td><div><table><tr><td><div>fe80::c8ea:23fb:9652:dd3a%10</div></td></tr><tr><td><div>fe80::5137:f8e6:32cf:581f%15</div></td></tr><tr><td><div>::ffff:127.0.0.1</div></td></tr><tr><td><div>::1</div></td></tr><tr><td><div>Dell-PC</div></td></tr><tr><td><div>169.254.221.58</div></td></tr><tr><td><div>127.0.0.1</div></td></tr><tr><td><div>192.168.0.100</div></td></tr></table></div></td></tr><tr><td style="font-weight:bold;vertical-align:top;">path_info</td><td style="vertical-align:top;">:</td><td><div>/Virtualizacion/default/recurso</div></td></tr><tr><td style="font-weight:bold;vertical-align:top;">query_string</td><td style="vertical-align:top;">:</td><td><div></div></td></tr><tr><td style="font-weight:bold;vertical-align:top;">remote_addr</td><td style="vertical-align:top;">:</td><td><div>127.0.0.1</div></td></tr><tr><td style="font-weight:bold;vertical-align:top;">remote_port</td><td style="vertical-align:top;">:</td><td><div>54684</div></td></tr><tr><td style="font-weight:bold;vertical-align:top;">request_method</td><td style="vertical-align:top;">:</td><td><div>POST</div></td></tr><tr><td style="font-weight:bold;vertical-align:top;">request_uri</td><td style="vertical-align:top;">:</td><td><div>/Virtualizacion/default/recurso</div></td></tr><tr><td style="font-weight:bold;vertical-align:top;">script_name</td><td style="vertical-align:top;">:</td><td><div></div></td></tr><tr><td style="font-weight:bold;vertical-align:top;">server_name</td><td style="vertical-align:top;">:</td><td><div>Dell-PC</div></td></tr><tr><td style="font-weight:bold;vertical-align:top;">server_port</td><td style="vertical-align:top;">:</td><td><div>8000</div></td></tr><tr><td style="font-weight:bold;vertical-align:top;">server_protocol</td><td style="vertical-align:top;">:</td><td><div>HTTP/1.1</div></td></tr><tr><td style="font-weight:bold;vertical-align:top;">server_software</td><td style="vertical-align:top;">:</td><td><div>Rocket 1.2.6</div></td></tr><tr><td style="font-weight:bold;vertical-align:top;">web2py_path</td><td style="vertical-align:top;">:</td><td><div>C:\\Users\\Dell}\\Documents\\Leen Argon\\Universidad (UCV)\\7mo Semestre\\Lab. Desarrollo Software\\web2py_sprint2</div></td></tr><tr><td style="font-weight:bold;vertical-align:top;">web2py_version</td><td style="vertical-align:top;">:</td><td><div>2.14.6-stable+timestamp.2016.05.10.00.21.47</div></td></tr><tr><td style="font-weight:bold;vertical-align:top;">wsgi.errors</td><td style="vertical-align:top;">:</td><td><div>&lt;open file &#x27;&lt;stderr&gt;&#x27;, mode &#x27;w&#x27; at 0x0204D0D0&gt;</div></td></tr><tr><td style="font-weight:bold;vertical-align:top;">wsgi.file_wrapper</td><td style="vertical-align:top;">:</td><td><div>&lt;class wsgiref.util.FileWrapper at 0x023F8180&gt;</div></td></tr><tr><td style="font-weight:bold;vertical-align:top;">wsgi.input</td><td style="vertical-align:top;">:</td><td><div>&lt;socket._fileobject object at 0x0A395070&gt;</div></td></tr><tr><td style="font-weight:bold;vertical-align:top;">wsgi.multiprocess</td><td style="vertical-align:top;">:</td><td><div>False</div></td></tr><tr><td style="font-weight:bold;vertical-align:top;">wsgi.multithread</td><td style="vertical-align:top;">:</td><td><div>True</div></td></tr><tr><td style="font-weight:bold;vertical-align:top;">wsgi.run_once</td><td style="vertical-align:top;">:</td><td><div>False</div></td></tr><tr><td style="font-weight:bold;vertical-align:top;">wsgi.url_scheme</td><td style="vertical-align:top;">:</td><td><div>http</div></td></tr><tr><td style="font-weight:bold;vertical-align:top;">wsgi.version</td><td style="vertical-align:top;">:</td><td><div><table><tr><td><div>1</div></td></tr><tr><td><div>0</div></td></tr></table></div></td></tr><tr><td style="font-weight:bold;vertical-align:top;">wsgi_errors</td><td style="vertical-align:top;">:</td><td><div>&lt;open file &#x27;&lt;stderr&gt;&#x27;, mode &#x27;w&#x27; at 0x0204D0D0&gt;</div></td></tr><tr><td style="font-weight:bold;vertical-align:top;">wsgi_file_wrapper</td><td style="vertical-align:top;">:</td><td><div>&lt;class wsgiref.util.FileWrapper at 0x023F8180&gt;</div></td></tr><tr><td style="font-weight:bold;vertical-align:top;">wsgi_input</td><td style="vertical-align:top;">:</td><td><div>&lt;socket._fileobject object at 0x0A395070&gt;</div></td></tr><tr><td style="font-weight:bold;vertical-align:top;">wsgi_multiprocess</td><td style="vertical-align:top;">:</td><td><div>False</div></td></tr><tr><td style="font-weight:bold;vertical-align:top;">wsgi_multithread</td><td style="vertical-align:top;">:</td><td><div>True</div></td></tr><tr><td style="font-weight:bold;vertical-align:top;">wsgi_run_once</td><td style="vertical-align:top;">:</td><td><div>False</div></td></tr><tr><td style="font-weight:bold;vertical-align:top;">wsgi_url_scheme</td><td style="vertical-align:top;">:</td><td><div>http</div></td></tr><tr><td style="font-weight:bold;vertical-align:top;">wsgi_version</td><td style="vertical-align:top;">:</td><td><div><table><tr><td><div>1</div></td></tr><tr><td><div>0</div></td></tr></table></div></td></tr></table></div></td></tr><tr><td style="font-weight:bold;vertical-align:top;">extension</td><td style="vertical-align:top;">:</td><td><div>html</div></td></tr><tr><td style="font-weight:bold;vertical-align:top;">folder</td><td style="vertical-align:top;">:</td><td><div>C:\\Users\\Dell}\\Documents\\Leen Argon\\Universidad (UCV)\\7mo Semestre\\Lab. Desarrollo Software\\web2py_sprint2\\applications\\Virtualizacion\\</div></td></tr><tr><td style="font-weight:bold;vertical-align:top;">function</td><td style="vertical-align:top;">:</td><td><div>recurso</div></td></tr><tr><td style="font-weight:bold;vertical-align:top;">global_settings</td><td style="vertical-align:top;">:</td><td><div><table><tr><td style="font-weight:bold;vertical-align:top;">app_folders</td><td style="vertical-align:top;">:</td><td><div>set([&#x27;C:\\\\Users\\\\Dell}\\\\Documents\\\\Leen Argon\\\\Universidad (UCV)\\\\7mo Semestre\\\\Lab. Desarrollo Software\\\\web2py_sprint2\\\\applications\\\\welcome\\\\&#x27;, &#x27;C:\\\\Users\\\\Dell}\\\\Documents\\\\Leen Argon\\\\Universidad (UCV)\\\\7mo Semestre\\\\Lab. Desarrollo Software\\\\web2py_sprint2\\\\applications\\\\admin\\\\&#x27;, &#x27;C:\\\\Users\\\\Dell}\\\\Documents\\\\Leen Argon\\\\Universidad (UCV)\\\\7mo Semestre\\\\Lab. Desarrollo Software\\\\web2py_sprint2\\\\applications\\\\Virtualizacion\\\\&#x27;])</div></td></tr><tr><td style="font-weight:bold;vertical-align:top;">applications_parent</td><td style="vertical-align:top;">:</td><td><div>C:\\Users\\Dell}\\Documents\\Leen Argon\\Universidad (UCV)\\7mo Semestre\\Lab. Desarrollo Software\\web2py_sprint2</div></td></tr><tr><td style="font-weight:bold;vertical-align:top;">cmd_args</td><td style="vertical-align:top;">:</td><td><div><table></table></div></td></tr><tr><td style="font-weight:bold;vertical-align:top;">cmd_options</td><td style="vertical-align:top;">:</td><td><div>&lt;Values at 0x2d1ad78: {&#x27;verbose&#x27;: False, &#x27;ip&#x27;: &#x27;127.0.0.1&#x27;, &#x27;debuglevel&#x27;: 30, &#x27;with_scheduler&#x27;: False, &#x27;shutdown_timeout&#x27;: 5, &#x27;taskbar&#x27;: False, &#x27;with_coverage&#x27;: False, &#x27;pid_filename&#x27;: &#x27;httpserver.pid&#x27;, &#x27;maxthreads&#x27;: None, &#x27;softcron&#x27;: False, &#x27;server_name&#x27;: &#x27;Dell-PC&#x27;, &#x27;bpython&#x27;: False, &#x27;nogui&#x27;: False, &#x27;port&#x27;: 8000, &#x27;print_errors&#x27;: False, &#x27;extcron&#x27;: False, &#x27;runcron&#x27;: False, &#x27;run_system_tests&#x27;: False, &#x27;test&#x27;: None, &#x27;folder&#x27;: &#x27;C:\\\\Users\\\\Dell}\\\\Documents\\\\Leen Argon\\\\Universidad (UCV)\\\\7mo Semestre\\\\Lab. Desarrollo Software\\\\web2py_sprint2&#x27;, &#x27;config&#x27;: &#x27;&#x27;, &#x27;minthreads&#x27;: None, &#x27;shell&#x27;: None, &#x27;run&#x27;: &#x27;&#x27;, &#x27;log_filename&#x27;: &#x27;httpserver.log&#x27;, &#x27;profiler_dir&#x27;: None, &#x27;args&#x27;: [&#x27;&#x27;], &#x27;socket_timeout&#x27;: 5, &#x27;ssl_ca_certificate&#x27;: None, &#x27;scheduler&#x27;: None, &#x27;interfaces&#x27;: None, &#x27;ssl_private_key&#x27;: &#x27;&#x27;, &#x27;gae&#x27;: None, &#x27;password&#x27;: &#x27;******&#x27;, &#x27;request_queue_size&#x27;: 5, &#x27;ssl_certificate&#x27;: &#x27;&#x27;, &#x27;cronjob&#x27;: False, &#x27;numthreads&#x27;: None, &#x27;quiet&#x27;: False, &#x27;import_models&#x27;: False, &#x27;timeout&#x27;: 10, &#x27;plain&#x27;: False, &#x27;nobanner&#x27;: False}&gt;</div></td></tr><tr><td style="font-weight:bold;vertical-align:top;">db_sessions</td><td style="vertical-align:top;">:</td><td><div>set([])</div></td></tr><tr><td style="font-weight:bold;vertical-align:top;">debugging</td><td style="vertical-align:top;">:</td><td><div>False</div></td></tr><tr><td style="font-weight:bold;vertical-align:top;">gluon_parent</td><td style="vertical-align:top;">:</td><td><div>C:\\Users\\Dell}\\Documents\\Leen Argon\\Universidad (UCV)\\7mo Semestre\\Lab. Desarrollo Software\\web2py_sprint2</div></td></tr><tr><td style="font-weight:bold;vertical-align:top;">is_jython</td><td style="vertical-align:top;">:</td><td><div>False</div></td></tr><tr><td style="font-weight:bold;vertical-align:top;">is_pypy</td><td style="vertical-align:top;">:</td><td><div>False</div></td></tr><tr><td style="font-weight:bold;vertical-align:top;">is_source</td><td style="vertical-align:top;">:</td><td><div>False</div></td></tr><tr><td style="font-weight:bold;vertical-align:top;">local_hosts</td><td style="vertical-align:top;">:</td><td><div><table><tr><td><div>fe80::c8ea:23fb:9652:dd3a%10</div></td></tr><tr><td><div>fe80::5137:f8e6:32cf:581f%15</div></td></tr><tr><td><div>::ffff:127.0.0.1</div></td></tr><tr><td><div>::1</div></td></tr><tr><td><div>Dell-PC</div></td></tr><tr><td><div>169.254.221.58</div></td></tr><tr><td><div>127.0.0.1</div></td></tr><tr><td><div>192.168.0.100</div></td></tr></table></div></td></tr><tr><td style="font-weight:bold;vertical-align:top;">web2py_version</td><td style="vertical-align:top;">:</td><td><div>2.14.6-stable+timestamp.2016.05.10.00.21.47</div></td></tr></table></div></td></tr><tr><td style="font-weight:bold;vertical-align:top;">is_https</td><td style="vertical-align:top;">:</td><td><div>False</div></td></tr><tr><td style="font-weight:bold;vertical-align:top;">is_local</td><td style="vertical-align:top;">:</td><td><div>True</div></td></tr><tr><td style="font-weight:bold;vertical-align:top;">is_restful</td><td style="vertical-align:top;">:</td><td><div>False</div></td></tr><tr><td style="font-weight:bold;vertical-align:top;">is_scheduler</td><td style="vertical-align:top;">:</td><td><div>False</div></td></tr><tr><td style="font-weight:bold;vertical-align:top;">is_shell</td><td style="vertical-align:top;">:</td><td><div>False</div></td></tr><tr><td style="font-weight:bold;vertical-align:top;">now</td><td style="vertical-align:top;">:</td><td><div>datetime.datetime(2017, 3, 30, 23, 16, 54, 769000)</div></td></tr><tr><td style="font-weight:bold;vertical-align:top;">raw_args</td><td style="vertical-align:top;">:</td><td><div></div></td></tr><tr><td style="font-weight:bold;vertical-align:top;">raw_extension</td><td style="vertical-align:top;">:</td><td><div>None</div></td></tr><tr><td style="font-weight:bold;vertical-align:top;">url</td><td style="vertical-align:top;">:</td><td><div>/Virtualizacion/default/recurso</div></td></tr><tr><td style="font-weight:bold;vertical-align:top;">utcnow</td><td style="vertical-align:top;">:</td><td><div>datetime.datetime(2017, 3, 31, 3, 16, 54, 769000)</div></td></tr><tr><td style="font-weight:bold;vertical-align:top;">wsgi</td><td style="vertical-align:top;">:</td><td><div>&lt;gluon.main.LazyWSGI object at 0x0A2FBFF0&gt;</div></td></tr></table></div>'
tRp58
sS'frames'
p59
(lp60
(dp61
S'file'
p62
S'C:\\Users\\Dell}\\Documents\\Leen Argon\\Universidad (UCV)\\7mo Semestre\\Lab. Desarrollo Software\\web2py_sprint2\\gluon\\restricted.py'
p63
sS'dump'
p64
(dp65
S'environment'
p66
S"{'A': <class 'gluon.html.A'>, 'ANY_OF': <class 'gluon.validators.ANY_OF'>, 'ASSIGNJS': <function ASSIGNJS>, 'AppConfig': <function AppConfig>, 'Auth': <class 'gluon.tools.Auth'>, 'B': <class 'gluon.html.B'>, 'BEAUTIFY': <class 'gluon.html.BEAUTIFY'>, 'BODY': <class 'gluon.html.BODY'>, 'BR': <class 'gluon.html.BR'>, 'BUTTON': <class 'gluon.html.BUTTON'>, ...}"
p67
sS'ccode'
p68
S'<code object <module> at 0BD09728, file "C:\\User...s\\Virtualizacion\\controllers/default.py", line 4>'
p69
ssS'lnum'
p70
I227
sS'lines'
p71
(dp72
I224
S'            ccode = code'
p73
sI225
S'        else:'
p74
sI226
S'            ccode = compile2(code, layer)'
p75
sI227
S'        exec ccode in environment'
p76
sI228
S'    except HTTP:'
p77
sI229
S'        raise'
p78
sI230
S'    except RestrictedError:'
p79
sI231
S'        # do not encapsulate (obfuscate) the original RestrictedError'
p80
sI222
S'    try:'
p81
sI223
S'        if isinstance(code, types.CodeType):'
p82
ssS'call'
p83
S"(code='# -*- coding: utf-8 -*-\\n### required - do no del...ata\\n   \\nresponse._vars=response._caller(recurso)\\n', environment={'A': <class 'gluon.html.A'>, 'ANY_OF': <class 'gluon.validators.ANY_OF'>, 'ASSIGNJS': <function ASSIGNJS>, 'AppConfig': <function AppConfig>, 'Auth': <class 'gluon.tools.Auth'>, 'B': <class 'gluon.html.B'>, 'BEAUTIFY': <class 'gluon.html.BEAUTIFY'>, 'BODY': <class 'gluon.html.BODY'>, 'BR': <class 'gluon.html.BR'>, 'BUTTON': <class 'gluon.html.BUTTON'>, ...}, layer=r'C:\\Users\\Dell}\\Documents\\Leen Argon\\Universidad ...pplications\\Virtualizacion\\controllers/default.py')"
p84
sS'func'
p85
S'restricted'
p86
sa(dp87
g62
S'C:\\Users\\Dell}\\Documents\\Leen Argon\\Universidad (UCV)\\7mo Semestre\\Lab. Desarrollo Software\\web2py_sprint2\\applications\\Virtualizacion\\controllers\\default.py'
p88
sg64
(dp89
sg70
I279
sg71
(dp90
I269
S''
sI270
S'@auth.requires_login()'
p91
sI271
S'def get_user_names():'
p92
sI272
S'    usernames = db(db.auth_user).select(db.auth_user.first_name, db.auth_user.last_name)'
p93
sI273
S"    names = '';"
p94
sI274
S'    for name in usernames:'
p95
sI275
S"        names = names + str(name['auth_user.first_name']) + ' ' + str(name['auth_user.last_name']) + '|'"
p96
sI276
S"    data = {'usernames': names}"
p97
sI277
S'    return data'
p98
sI278
S''
ssg83
S'()'
p99
sg85
S'<module>'
p100
sa(dp101
g62
S'C:\\Users\\Dell}\\Documents\\Leen Argon\\Universidad (UCV)\\7mo Semestre\\Lab. Desarrollo Software\\web2py_sprint2\\gluon\\globals.py'
p102
sg64
(dp103
S'self'
p104
S'undefined'
p105
sS'f'
S'<function recurso>'
p106
ssg70
I417
sg71
(dp107
I416
S'        self._vars = None'
p108
sI417
S'        self._caller = lambda f: f()'
p109
sI418
S'        self._view_environment = None'
p110
sI419
S'        self._custom_commit = None'
p111
sI420
S'        self._custom_rollback = None'
p112
sI421
S"        self.generic_patterns = ['*']"
p113
sI412
S"        self.flash = ''            # used by the default view layout"
p114
sI413
S'        self.meta = Storage()      # used by web2py_ajax.html'
p115
sI414
S'        self.menu = []             # used by the default view layout'
p116
sI415
S'        self.files = []            # used by web2py_ajax.html'
p117
ssg83
S'(f=<function recurso>)'
p118
sg85
S'<lambda>'
p119
sa(dp120
g62
S'C:\\Users\\Dell}\\Documents\\Leen Argon\\Universidad (UCV)\\7mo Semestre\\Lab. Desarrollo Software\\web2py_sprint2\\gluon\\tools.py'
p121
sg64
(dp122
S'action'
p123
S'<function recurso>'
p124
sS'a'
S'()'
p125
sS'b'
g45
ssg70
I4241
sg71
(dp126
I4236
S'                    flag = condition'
p127
sI4237
S'                if not flag:'
p128
sI4238
S'                    current.session.flash = self.messages.access_denied'
p129
sI4239
S'                    return call_or_redirect('
p130
sI4240
S'                        self.settings.on_failed_authorization)'
p131
sI4241
S'                return action(*a, **b)'
p132
sI4242
S'            f.__doc__ = action.__doc__'
p133
sI4243
S'            f.__name__ = action.__name__'
p134
sI4244
S'            f.__dict__.update(action.__dict__)'
p135
sI4245
S'            return f'
p136
ssg83
S'(*a=(), **b={})'
p137
sg85
S'f'
sa(dp138
g62
S'C:\\Users\\Dell}\\Documents\\Leen Argon\\Universidad (UCV)\\7mo Semestre\\Lab. Desarrollo Software\\web2py_sprint2\\applications\\Virtualizacion\\controllers\\default.py'
p139
sg64
(dp140
S'form.errors'
p141
S'<Storage {}>'
p142
sS'form'
p143
S'<gluon.sqlhtml.SQLFORM object>'
p144
ssg70
I78
sg71
(dp145
I73
S'    #form =db().select(db.t_resource.f_name, db.t_resource.f_code_course)'
p146
sI74
S'    form = SQLFORM('
p147
sI75
S'        db.t_resource,'
p148
sI76
S"        fields=['f_name','f_code_course','f_responsable','f_type','f_format','f_description','f_is_planilla'],"
p149
sI77
S'        deletable=True)'
p150
sI78
S'    if form.process().accepted:'
p151
sI79
S"        response.flash = 'form accepted'"
p152
sI80
S'    elif form.errors:'
p153
sI81
S"        response.flash = 'form has errors'"
p154
sI82
S'    return dict(form=form)'
p155
ssg83
S'()'
p156
sg85
S'recurso'
p157
sa(dp158
g62
S'C:\\Users\\Dell}\\Documents\\Leen Argon\\Universidad (UCV)\\7mo Semestre\\Lab. Desarrollo Software\\web2py_sprint2\\gluon\\html.py'
p159
sg64
(dp160
S'self'
p161
S'<gluon.sqlhtml.SQLFORM object>'
p162
sS'self.validate'
p163
S'<bound method SQLFORM.validate of <gluon.sqlhtml.SQLFORM object>>'
p164
sS'kwargs'
p165
S"{'dbio': True}"
p166
ssg70
I2298
sg71
(dp167
I2293
S'                return dict(form=SQLFORM(db.table).process(onsuccess=my_callback)'
p168
sI2294
S''
sI2295
S''
sI2296
S'        """'
p169
sI2297
S"        kwargs['dbio'] = kwargs.get('dbio', True)  # necessary for SQLHTML forms"
p170
sI2298
S'        self.validate(**kwargs)'
p171
sI2299
S'        return self'
p172
sI2300
S''
sI2301
S'    REDIRECT_JS = "window.location=\'%s\';return false"'
p173
sI2302
S''
ssg83
S"(self=<gluon.sqlhtml.SQLFORM object>, **kwargs={'dbio': True})"
p174
sg85
S'process'
p175
sa(dp176
g62
S'C:\\Users\\Dell}\\Documents\\Leen Argon\\Universidad (UCV)\\7mo Semestre\\Lab. Desarrollo Software\\web2py_sprint2\\gluon\\html.py'
p177
sg64
(dp178
S'self'
p179
S'<gluon.sqlhtml.SQLFORM object>'
p180
sS'self.accepts'
p181
S'<bound method SQLFORM.accepts of <gluon.sqlhtml.SQLFORM object>>'
p182
sS'kwargs'
p183
S"{'dbio': True, 'request_vars': <Storage {'f_description': '', 'f_name': '', 'f_...name': 't_resource/create', 'f_responsable': ''}>, 'session': <Storage {'_formkey[t_file/create]': ['d9aa98a6-...gin]': ['22de4f24-ec73-4420-b1ff-38b20d39dda2']}>}"
p184
ssg70
I2236
sg71
(dp185
I2240
S'                else:'
p186
sI2231
S"        for key in ('message_onsuccess', 'message_onfailure', 'onsuccess',"
p187
sI2232
S"                    'onfailure', 'next', 'message_onchange', 'onchange'):"
p188
sI2233
S'            if key in kwargs:'
p189
sI2234
S'                del kwargs[key]'
p190
sI2235
S''
sI2236
S'        if self.accepts(**kwargs):'
p191
sI2237
S"            if onsuccess == 'flash':"
p192
sI2238
S'                if next:'
p193
sI2239
S'                    current.session.flash = message_onsuccess'
p194
ssg83
S"(self=<gluon.sqlhtml.SQLFORM object>, **kwargs={'dbio': True, 'request_vars': <Storage {'f_description': '', 'f_name': '', 'f_...name': 't_resource/create', 'f_responsable': ''}>, 'session': <Storage {'_formkey[t_file/create]': ['d9aa98a6-...gin]': ['22de4f24-ec73-4420-b1ff-38b20d39dda2']}>})"
p195
sg85
S'validate'
p196
sa(dp197
g62
S'C:\\Users\\Dell}\\Documents\\Leen Argon\\Universidad (UCV)\\7mo Semestre\\Lab. Desarrollo Software\\web2py_sprint2\\gluon\\sqlhtml.py'
p198
sg64
(dp199
S'kwargs'
p200
g45
ssg70
I1529
sg71
(dp201
I1524
S'            session,'
p202
sI1525
S'            formname,'
p203
sI1526
S'            keepvalues,'
p204
sI1527
S'            onvalidation,'
p205
sI1528
S'            hideerror=hideerror,'
p206
sI1529
S'            **kwargs'
p207
sI1530
S'        )'
p208
sI1531
S''
sI1532
S'        self.deleted = request_vars.get(self.FIELDNAME_REQUEST_DELETE, False)'
p209
sI1533
S''
ssg83
S"(self=<gluon.sqlhtml.SQLFORM object>, request_vars=<Storage {'f_description': '', 'f_name': '', 'f_...name': 't_resource/create', 'f_responsable': ''}>, session=<Storage {'_formkey[t_file/create]': ['d9aa98a6-...gin]': ['22de4f24-ec73-4420-b1ff-38b20d39dda2']}>, formname='t_resource/create', keepvalues=False, onvalidation=None, dbio=True, hideerror=False, detect_record_change=False, **kwargs={})"
p210
sg85
S'accepts'
p211
sa(dp212
g62
S'C:\\Users\\Dell}\\Documents\\Leen Argon\\Universidad (UCV)\\7mo Semestre\\Lab. Desarrollo Software\\web2py_sprint2\\gluon\\html.py'
p213
sg64
(dp214
S'status'
p215
S'True'
p216
sS'self'
p217
S'<gluon.sqlhtml.SQLFORM object>'
p218
sS'self._traverse'
p219
S'<bound method SQLFORM._traverse of <gluon.sqlhtml.SQLFORM object>>'
p220
sS'hideerror'
p221
S'False'
p222
ssg70
I2122
sg71
(dp223
I2117
S'        if status and session:'
p224
sI2118
S'            # check if editing a record that has been modified by the server'
p225
sI2119
S"            if hasattr(self, 'record_hash') and self.record_hash != formkey.split(':')[0]:"
p226
sI2120
S'                status = False'
p227
sI2121
S'                self.record_changed = changed = True'
p228
sI2122
S'        status = self._traverse(status, hideerror)'
p229
sI2123
S'        status = self.assert_status(status, request_vars)'
p230
sI2124
S'        if onvalidation:'
p231
sI2125
S'            if isinstance(onvalidation, dict):'
p232
sI2126
S"                onsuccess = onvalidation.get('onsuccess', None)"
p233
ssg83
S"(self=<gluon.sqlhtml.SQLFORM object>, request_vars=<Storage {'f_description': '', 'f_name': '', 'f_...name': 't_resource/create', 'f_responsable': ''}>, session=<Storage {'_formkey[t_file/create]': ['d9aa98a6-...gin]': ['22de4f24-ec73-4420-b1ff-38b20d39dda2']}>, formname='t_resource/create', keepvalues=False, onvalidation=None, hideerror=False, **kwargs={})"
p234
sg85
g211
sa(dp235
g62
S'C:\\Users\\Dell}\\Documents\\Leen Argon\\Universidad (UCV)\\7mo Semestre\\Lab. Desarrollo Software\\web2py_sprint2\\gluon\\html.py'
p236
sg64
(dp237
S'status'
p238
g216
sS'newstatus'
p239
g216
sS'c'
S'<gluon.html.CAT object>'
p240
sS'hideerror'
p241
g222
sS'c._traverse'
p242
S'<bound method CAT._traverse of <gluon.html.CAT object>>'
p243
ssg70
I889
sg71
(dp244
I884
S'                c.latest = self.latest'
p245
sI885
S'                c.session = self.session'
p246
sI886
S'                c.formname = self.formname'
p247
sI887
S"                if not c.attributes.get('hideerror'):"
p248
sI888
S"                    c['hideerror'] = hideerror or self.attributes.get('hideerror')"
p249
sI889
S'                newstatus = c._traverse(status, hideerror) and newstatus'
p250
sI890
S''
sI891
S'        # for input, textarea, select, option'
p251
sI892
S"        # deal with 'value' and 'validation'"
p252
sI893
S''
ssg83
S'(self=<gluon.sqlhtml.SQLFORM object>, status=True, hideerror=False)'
p253
sg85
S'_traverse'
p254
sa(dp255
g62
S'C:\\Users\\Dell}\\Documents\\Leen Argon\\Universidad (UCV)\\7mo Semestre\\Lab. Desarrollo Software\\web2py_sprint2\\gluon\\html.py'
p256
sg64
(dp257
S'status'
p258
g216
sS'newstatus'
p259
g216
sS'c'
S'<gluon.html.DIV object>'
p260
sS'hideerror'
p261
g222
sS'c._traverse'
p262
S'<bound method DIV._traverse of <gluon.html.DIV object>>'
p263
ssg70
I889
sg71
(dp264
I884
S'                c.latest = self.latest'
p265
sI885
S'                c.session = self.session'
p266
sI886
S'                c.formname = self.formname'
p267
sI887
S"                if not c.attributes.get('hideerror'):"
p268
sI888
S"                    c['hideerror'] = hideerror or self.attributes.get('hideerror')"
p269
sI889
S'                newstatus = c._traverse(status, hideerror) and newstatus'
p270
sI890
S''
sI891
S'        # for input, textarea, select, option'
p271
sI892
S"        # deal with 'value' and 'validation'"
p272
sI893
S''
ssg83
S'(self=<gluon.html.CAT object>, status=True, hideerror=False)'
p273
sg85
g254
sa(dp274
g62
S'C:\\Users\\Dell}\\Documents\\Leen Argon\\Universidad (UCV)\\7mo Semestre\\Lab. Desarrollo Software\\web2py_sprint2\\gluon\\html.py'
p275
sg64
(dp276
S'status'
p277
g216
sS'newstatus'
p278
g216
sS'c'
S'<gluon.html.DIV object>'
p279
sS'hideerror'
p280
g222
sS'c._traverse'
p281
S'<bound method DIV._traverse of <gluon.html.DIV object>>'
p282
ssg70
I889
sg71
(dp283
I884
S'                c.latest = self.latest'
p284
sI885
S'                c.session = self.session'
p285
sI886
S'                c.formname = self.formname'
p286
sI887
S"                if not c.attributes.get('hideerror'):"
p287
sI888
S"                    c['hideerror'] = hideerror or self.attributes.get('hideerror')"
p288
sI889
S'                newstatus = c._traverse(status, hideerror) and newstatus'
p289
sI890
S''
sI891
S'        # for input, textarea, select, option'
p290
sI892
S"        # deal with 'value' and 'validation'"
p291
sI893
S''
ssg83
S'(self=<gluon.html.DIV object>, status=True, hideerror=False)'
p292
sg85
g254
sa(dp293
g62
S'C:\\Users\\Dell}\\Documents\\Leen Argon\\Universidad (UCV)\\7mo Semestre\\Lab. Desarrollo Software\\web2py_sprint2\\gluon\\html.py'
p294
sg64
(dp295
S'status'
p296
g216
sS'newstatus'
p297
g216
sS'c'
S'<gluon.html.INPUT object>'
p298
sS'hideerror'
p299
g222
sS'c._traverse'
p300
S'<bound method INPUT._traverse of <gluon.html.INPUT object>>'
p301
ssg70
I889
sg71
(dp302
I884
S'                c.latest = self.latest'
p303
sI885
S'                c.session = self.session'
p304
sI886
S'                c.formname = self.formname'
p305
sI887
S"                if not c.attributes.get('hideerror'):"
p306
sI888
S"                    c['hideerror'] = hideerror or self.attributes.get('hideerror')"
p307
sI889
S'                newstatus = c._traverse(status, hideerror) and newstatus'
p308
sI890
S''
sI891
S'        # for input, textarea, select, option'
p309
sI892
S"        # deal with 'value' and 'validation'"
p310
sI893
S''
ssg83
S'(self=<gluon.html.DIV object>, status=True, hideerror=False)'
p311
sg85
g254
sa(dp312
g62
S'C:\\Users\\Dell}\\Documents\\Leen Argon\\Universidad (UCV)\\7mo Semestre\\Lab. Desarrollo Software\\web2py_sprint2\\gluon\\html.py'
p313
sg64
(dp314
S'newstatus'
p315
g216
sS'self'
p316
S'<gluon.html.INPUT object>'
p317
sS'self._validate'
p318
S'<bound method INPUT._validate of <gluon.html.INPUT object>>'
p319
ssg70
I896
sg71
(dp320
I896
S'            newstatus = self._validate()'
p321
sI897
S'            self._postprocessing()'
p322
sI898
S"        elif 'old_value' in self.attributes:"
p323
sI899
S"            self['value'] = self['old_value']"
p324
sI900
S'            self._postprocessing()'
p325
sI891
S'        # for input, textarea, select, option'
p326
sI892
S"        # deal with 'value' and 'validation'"
p327
sI893
S''
sI894
S"        name = self['_name']"
p328
sI895
S'        if newstatus:'
p329
ssg83
S'(self=<gluon.html.INPUT object>, status=True, hideerror=False)'
p330
sg85
g254
sa(dp331
g62
S'C:\\Users\\Dell}\\Documents\\Leen Argon\\Universidad (UCV)\\7mo Semestre\\Lab. Desarrollo Software\\web2py_sprint2\\gluon\\html.py'
p332
sg64
(dp333
S'builtinException'
p334
S"<type 'exceptions.Exception'>"
p335
sS'msg'
p336
S"'Validation error, field:f_name True'"
p337
ssg70
I1867
sg71
(dp338
I1862
S'                    (value, errors) = validator(value)'
p339
sI1863
S'                except:'
p340
sI1864
S'                    import traceback'
p341
sI1865
S'                    print traceback.format_exc()'
p342
sI1866
S'                    msg = "Validation error, field:%s %s" % (name,validator)'
p343
sI1867
S'                    raise Exception(msg)'
p344
sI1868
S'                if errors is not None:'
p345
sI1869
S'                    self.vars[name] = value'
p346
sI1870
S'                    self.errors[name] = errors'
p347
sI1871
S'                    break'
p348
ssg83
S'(self=<gluon.html.INPUT object>)'
p349
sg85
S'_validate'
p350
sasS'pyver'
p351
S'Python 2.7.9: C:\\Users\\Dell}\\Documents\\Leen Argon\\Universidad (UCV)\\7mo Semestre\\Lab. Desarrollo Software\\web2py_sprint2\\web2py.exe (prefix: )'
p352
sS'session'
p353
g57
(S's\xf0\x08\x00\x00<div><table><tr><td style="font-weight:bold;vertical-align:top;">auth</td><td style="vertical-align:top;">:</td><td><div><table><tr><td style="font-weight:bold;vertical-align:top;">expiration</td><td style="vertical-align:top;">:</td><td><div>3600</div></td></tr><tr><td style="font-weight:bold;vertical-align:top;">hmac_key</td><td style="vertical-align:top;">:</td><td><div>7ec1cfc7-baea-4a84-bbdb-0dd899b07edb</div></td></tr><tr><td style="font-weight:bold;vertical-align:top;">last_visit</td><td style="vertical-align:top;">:</td><td><div>datetime.datetime(2017, 3, 30, 23, 16, 47, 793000)</div></td></tr><tr><td style="font-weight:bold;vertical-align:top;">remember_me</td><td style="vertical-align:top;">:</td><td><div>False</div></td></tr><tr><td style="font-weight:bold;vertical-align:top;">user</td><td style="vertical-align:top;">:</td><td><div><table><tr><td style="font-weight:bold;vertical-align:top;">email</td><td style="vertical-align:top;">:</td><td><div>keiber_prin@hotmail.com</div></td></tr><tr><td style="font-weight:bold;vertical-align:top;">first_name</td><td style="vertical-align:top;">:</td><td><div>keiber</div></td></tr><tr><td style="font-weight:bold;vertical-align:top;">id</td><td style="vertical-align:top;">:</td><td><div>13L</div></td></tr><tr><td style="font-weight:bold;vertical-align:top;">last_name</td><td style="vertical-align:top;">:</td><td><div>prin</div></td></tr><tr><td style="font-weight:bold;vertical-align:top;">registration_id</td><td style="vertical-align:top;">:</td><td><div></div></td></tr><tr><td style="font-weight:bold;vertical-align:top;">registration_key</td><td style="vertical-align:top;">:</td><td><div></div></td></tr><tr><td style="font-weight:bold;vertical-align:top;">reset_password_key</td><td style="vertical-align:top;">:</td><td><div></div></td></tr></table></div></td></tr><tr><td style="font-weight:bold;vertical-align:top;">user_groups</td><td style="vertical-align:top;">:</td><td><div><table><tr><td style="font-weight:bold;vertical-align:top;">2</td><td style="vertical-align:top;">:</td><td><div>user_13</div></td></tr></table></div></td></tr></table></div></td></tr><tr><td style="font-weight:bold;vertical-align:top;">flash</td><td style="vertical-align:top;">:</td><td><div>None</div></td></tr></table></div>'
tRp354
sS'etype'
p355
S"<type 'exceptions.Exception'>"
p356
sS'date'
p357
S'Thu Mar 30 23:16:55 2017'
p358
sS'response'
p359
g57
(S's\xc8#\x00\x00<div><table><tr><td style="font-weight:bold;vertical-align:top;">body</td><td style="vertical-align:top;">:</td><td><div>&lt;cStringIO.StringO object at 0x0B8DBE20&gt;</div></td></tr><tr><td style="font-weight:bold;vertical-align:top;">cookies</td><td style="vertical-align:top;">:</td><td><div><table><tr><td style="font-weight:bold;vertical-align:top;">session_id_virtualizacion</td><td style="vertical-align:top;">:</td><td><div>127.0.0.1-f0072632-af2b-40b2-8b84-3e5f24e64ea4<table><tr><td style="font-weight:bold;vertical-align:top;">comment</td><td style="vertical-align:top;">:</td><td><div></div></td></tr><tr><td style="font-weight:bold;vertical-align:top;">domain</td><td style="vertical-align:top;">:</td><td><div></div></td></tr><tr><td style="font-weight:bold;vertical-align:top;">expires</td><td style="vertical-align:top;">:</td><td><div></div></td></tr><tr><td style="font-weight:bold;vertical-align:top;">httponly</td><td style="vertical-align:top;">:</td><td><div></div></td></tr><tr><td style="font-weight:bold;vertical-align:top;">max-age</td><td style="vertical-align:top;">:</td><td><div></div></td></tr><tr><td style="font-weight:bold;vertical-align:top;">path</td><td style="vertical-align:top;">:</td><td><div>/</div></td></tr><tr><td style="font-weight:bold;vertical-align:top;">secure</td><td style="vertical-align:top;">:</td><td><div></div></td></tr><tr><td style="font-weight:bold;vertical-align:top;">version</td><td style="vertical-align:top;">:</td><td><div></div></td></tr></table></div></td></tr></table></div></td></tr><tr><td style="font-weight:bold;vertical-align:top;">delimiters</td><td style="vertical-align:top;">:</td><td><div><table><tr><td><div>{{</div></td></tr><tr><td><div>}}</div></td></tr></table></div></td></tr><tr><td style="font-weight:bold;vertical-align:top;">files</td><td style="vertical-align:top;">:</td><td><div><table></table></div></td></tr><tr><td style="font-weight:bold;vertical-align:top;">flash</td><td style="vertical-align:top;">:</td><td><div></div></td></tr><tr><td style="font-weight:bold;vertical-align:top;">form_label_separator</td><td style="vertical-align:top;">:</td><td><div></div></td></tr><tr><td style="font-weight:bold;vertical-align:top;">formstyle</td><td style="vertical-align:top;">:</td><td><div>bootstrap3_inline</div></td></tr><tr><td style="font-weight:bold;vertical-align:top;">generic_patterns</td><td style="vertical-align:top;">:</td><td><div><table><tr><td><div>*</div></td></tr></table></div></td></tr><tr><td style="font-weight:bold;vertical-align:top;">headers</td><td style="vertical-align:top;">:</td><td><div><table><tr><td style="font-weight:bold;vertical-align:top;">X-Powered-By</td><td style="vertical-align:top;">:</td><td><div>web2py</div></td></tr></table></div></td></tr><tr><td style="font-weight:bold;vertical-align:top;">menu</td><td style="vertical-align:top;">:</td><td><div><table><tr><td><div><table><tr><td><div>\xc3\x8dndice</div></td></tr><tr><td><div>False</div></td></tr><tr><td><div>/Virtualizacion/default/index</div></td></tr><tr><td><div><table></table></div></td></tr></table></div></td></tr><tr><td><div><table><tr><td><div>User</div></td></tr><tr><td><div>False</div></td></tr><tr><td><div>/Virtualizacion/default/user_manage</div></td></tr><tr><td><div><table></table></div></td></tr></table></div></td></tr><tr><td><div><table><tr><td><div>Profesor</div></td></tr><tr><td><div>False</div></td></tr><tr><td><div>/Virtualizacion/default/profesor</div></td></tr><tr><td><div><table></table></div></td></tr></table></div></td></tr><tr><td><div><table><tr><td><div>Disenador</div></td></tr><tr><td><div>False</div></td></tr><tr><td><div>/Virtualizacion/default/disenador</div></td></tr><tr><td><div><table></table></div></td></tr></table></div></td></tr><tr><td><div><table><tr><td><div>Course</div></td></tr><tr><td><div>False</div></td></tr><tr><td><div>/Virtualizacion/default/course_manage</div></td></tr><tr><td><div><table></table></div></td></tr></table></div></td></tr><tr><td><div><table><tr><td><div>Recurso</div></td></tr><tr><td><div>True</div></td></tr><tr><td><div>/Virtualizacion/default/recurso</div></td></tr><tr><td><div><table></table></div></td></tr></table></div></td></tr><tr><td><div><table><tr><td><div>Program</div></td></tr><tr><td><div>False</div></td></tr><tr><td><div>/Virtualizacion/default/program_manage</div></td></tr><tr><td><div><table></table></div></td></tr></table></div></td></tr><tr><td><div><table><tr><td><div>Has Course</div></td></tr><tr><td><div>False</div></td></tr><tr><td><div>/Virtualizacion/default/has_course_manage</div></td></tr><tr><td><div><table></table></div></td></tr></table></div></td></tr><tr><td><div><table><tr><td><div>Register User</div></td></tr><tr><td><div>False</div></td></tr><tr><td><div>/Virtualizacion/default/register_user</div></td></tr><tr><td><div><table></table></div></td></tr></table></div></td></tr><tr><td><div><table><tr><td><div>Dashboard</div></td></tr><tr><td><div>False</div></td></tr><tr><td><div>/Virtualizacion/default/dashboard</div></td></tr><tr><td><div><table></table></div></td></tr></table></div></td></tr></table></div></td></tr><tr><td style="font-weight:bold;vertical-align:top;">meta</td><td style="vertical-align:top;">:</td><td><div><table><tr><td style="font-weight:bold;vertical-align:top;">author</td><td style="vertical-align:top;">:</td><td><div>Aminosoft &lt;aminosoft@gmail.com&gt;</div></td></tr><tr><td style="font-weight:bold;vertical-align:top;">description</td><td style="vertical-align:top;">:</td><td><div></div></td></tr><tr><td style="font-weight:bold;vertical-align:top;">keywords</td><td style="vertical-align:top;">:</td><td><div></div></td></tr></table></div></td></tr><tr><td style="font-weight:bold;vertical-align:top;">models_to_run</td><td style="vertical-align:top;">:</td><td><div><table><tr><td><div>^\\w+\\.py$</div></td></tr><tr><td><div>^default/\\w+\\.py$</div></td></tr><tr><td><div>^default/recurso/\\w+\\.py$</div></td></tr></table></div></td></tr><tr><td style="font-weight:bold;vertical-align:top;">postprocessing</td><td style="vertical-align:top;">:</td><td><div><table></table></div></td></tr><tr><td style="font-weight:bold;vertical-align:top;">session_client</td><td style="vertical-align:top;">:</td><td><div>127.0.0.1</div></td></tr><tr><td style="font-weight:bold;vertical-align:top;">session_cookie_compression_level</td><td style="vertical-align:top;">:</td><td><div>None</div></td></tr><tr><td style="font-weight:bold;vertical-align:top;">session_cookie_expires</td><td style="vertical-align:top;">:</td><td><div>None</div></td></tr><tr><td style="font-weight:bold;vertical-align:top;">session_data_name</td><td style="vertical-align:top;">:</td><td><div>session_data_virtualizacion</div></td></tr><tr><td style="font-weight:bold;vertical-align:top;">session_file</td><td style="vertical-align:top;">:</td><td><div>&lt;open file &#x27;C:\\\\Users\\\\Dell}\\\\Documents\\\\Leen Argon\\\\Universidad (UCV)\\\\7mo Semestre\\\\Lab. Desarrollo Software\\\\web2py_sprint2\\\\applications\\\\Virtualizacion\\\\sessions\\\\0c7\\\\1eb\\\\127.0.0.1-f0072632-af2b-40b2-8b84-3e5f24e64ea4&#x27;, mode &#x27;rb+&#x27; at 0x07C77B78&gt;</div></td></tr><tr><td style="font-weight:bold;vertical-align:top;">session_filename</td><td style="vertical-align:top;">:</td><td><div>C:\\Users\\Dell}\\Documents\\Leen Argon\\Universidad (UCV)\\7mo Semestre\\Lab. Desarrollo Software\\web2py_sprint2\\applications\\Virtualizacion\\sessions\\127.0.0.1-f0072632-af2b-40b2-8b84-3e5f24e64ea4</div></td></tr><tr><td style="font-weight:bold;vertical-align:top;">session_hash</td><td style="vertical-align:top;">:</td><td><div>ab8d5049d16865fd2e9ccaa8a83c542b</div></td></tr><tr><td style="font-weight:bold;vertical-align:top;">session_id</td><td style="vertical-align:top;">:</td><td><div>127.0.0.1-f0072632-af2b-40b2-8b84-3e5f24e64ea4</div></td></tr><tr><td style="font-weight:bold;vertical-align:top;">session_id_name</td><td style="vertical-align:top;">:</td><td><div>session_id_virtualizacion</div></td></tr><tr><td style="font-weight:bold;vertical-align:top;">session_locked</td><td style="vertical-align:top;">:</td><td><div>True</div></td></tr><tr><td style="font-weight:bold;vertical-align:top;">session_masterapp</td><td style="vertical-align:top;">:</td><td><div>Virtualizacion</div></td></tr><tr><td style="font-weight:bold;vertical-align:top;">session_new</td><td style="vertical-align:top;">:</td><td><div>False</div></td></tr><tr><td style="font-weight:bold;vertical-align:top;">session_storage_type</td><td style="vertical-align:top;">:</td><td><div>file</div></td></tr><tr><td style="font-weight:bold;vertical-align:top;">status</td><td style="vertical-align:top;">:</td><td><div>200</div></td></tr><tr><td style="font-weight:bold;vertical-align:top;">subtitle</td><td style="vertical-align:top;">:</td><td><div>powered by web2py</div></td></tr><tr><td style="font-weight:bold;vertical-align:top;">title</td><td style="vertical-align:top;">:</td><td><div>Gestor de virtualizacion</div></td></tr><tr><td style="font-weight:bold;vertical-align:top;">view</td><td style="vertical-align:top;">:</td><td><div>default/recurso.html</div></td></tr></table></div>'
tRp360
sS'locals'
p361
(dp362
S'name'
p363
S"'f_name'"
p364
sS'k'
S'0'
sS'traceback'
p365
S"<module 'traceback' from 'C:\\Users\\Dell}\\Documen...ftware\\web2py_sprint2\\library.zip\\traceback.pyc'>"
p366
sS'value'
p367
S"''"
p368
sS'validator'
p369
g216
sS'msg'
p370
S"'Validation error, field:f_name True'"
p371
sS'request_vars_get'
p372
S'<built-in method get of Storage object>'
p373
sS'requires'
p374
S'[True]'
p375
sS'self'
p376
S'<gluon.html.INPUT object>'
p377
sssg365
S'Traceback (most recent call last):\n  File "C:\\Users\\Dell}\\Documents\\Leen Argon\\Universidad (UCV)\\7mo Semestre\\Lab. Desarrollo Software\\web2py_sprint2\\gluon\\restricted.py", line 227, in restricted\n    exec ccode in environment\n  File "C:\\Users\\Dell}\\Documents\\Leen Argon\\Universidad (UCV)\\7mo Semestre\\Lab. Desarrollo Software\\web2py_sprint2\\applications\\Virtualizacion\\controllers/default.py", line 279, in <module>\n  File "C:\\Users\\Dell}\\Documents\\Leen Argon\\Universidad (UCV)\\7mo Semestre\\Lab. Desarrollo Software\\web2py_sprint2\\gluon\\globals.py", line 417, in <lambda>\n    self._caller = lambda f: f()\n  File "C:\\Users\\Dell}\\Documents\\Leen Argon\\Universidad (UCV)\\7mo Semestre\\Lab. Desarrollo Software\\web2py_sprint2\\gluon\\tools.py", line 4241, in f\n    return action(*a, **b)\n  File "C:\\Users\\Dell}\\Documents\\Leen Argon\\Universidad (UCV)\\7mo Semestre\\Lab. Desarrollo Software\\web2py_sprint2\\applications\\Virtualizacion\\controllers/default.py", line 78, in recurso\n    if form.process().accepted:\n  File "C:\\Users\\Dell}\\Documents\\Leen Argon\\Universidad (UCV)\\7mo Semestre\\Lab. Desarrollo Software\\web2py_sprint2\\gluon\\html.py", line 2298, in process\n    self.validate(**kwargs)\n  File "C:\\Users\\Dell}\\Documents\\Leen Argon\\Universidad (UCV)\\7mo Semestre\\Lab. Desarrollo Software\\web2py_sprint2\\gluon\\html.py", line 2236, in validate\n    if self.accepts(**kwargs):\n  File "C:\\Users\\Dell}\\Documents\\Leen Argon\\Universidad (UCV)\\7mo Semestre\\Lab. Desarrollo Software\\web2py_sprint2\\gluon\\sqlhtml.py", line 1529, in accepts\n    **kwargs\n  File "C:\\Users\\Dell}\\Documents\\Leen Argon\\Universidad (UCV)\\7mo Semestre\\Lab. Desarrollo Software\\web2py_sprint2\\gluon\\html.py", line 2122, in accepts\n    status = self._traverse(status, hideerror)\n  File "C:\\Users\\Dell}\\Documents\\Leen Argon\\Universidad (UCV)\\7mo Semestre\\Lab. Desarrollo Software\\web2py_sprint2\\gluon\\html.py", line 889, in _traverse\n    newstatus = c._traverse(status, hideerror) and newstatus\n  File "C:\\Users\\Dell}\\Documents\\Leen Argon\\Universidad (UCV)\\7mo Semestre\\Lab. Desarrollo Software\\web2py_sprint2\\gluon\\html.py", line 889, in _traverse\n    newstatus = c._traverse(status, hideerror) and newstatus\n  File "C:\\Users\\Dell}\\Documents\\Leen Argon\\Universidad (UCV)\\7mo Semestre\\Lab. Desarrollo Software\\web2py_sprint2\\gluon\\html.py", line 889, in _traverse\n    newstatus = c._traverse(status, hideerror) and newstatus\n  File "C:\\Users\\Dell}\\Documents\\Leen Argon\\Universidad (UCV)\\7mo Semestre\\Lab. Desarrollo Software\\web2py_sprint2\\gluon\\html.py", line 889, in _traverse\n    newstatus = c._traverse(status, hideerror) and newstatus\n  File "C:\\Users\\Dell}\\Documents\\Leen Argon\\Universidad (UCV)\\7mo Semestre\\Lab. Desarrollo Software\\web2py_sprint2\\gluon\\html.py", line 896, in _traverse\n    newstatus = self._validate()\n  File "C:\\Users\\Dell}\\Documents\\Leen Argon\\Universidad (UCV)\\7mo Semestre\\Lab. Desarrollo Software\\web2py_sprint2\\gluon\\html.py", line 1867, in _validate\n    raise Exception(msg)\nException: Validation error, field:f_name True\n'
p378
s.